(lp1
(S'the'
I22003
tp2
a(S'to'
I16118
tp3
a(S'ect'
I11643
tp4
a(S'and'
I11337
tp5
a(S'for'
I9430
tp6
a(S'of'
I9382
tp7
a(S'a'
I8815
tp8
a(S'you'
I7289
tp9
a(S'hou'
I7283
tp10
a(S'in'
I6885
tp11
a(S'on'
I6723
tp12
a(S'is'
I6664
tp13
a(S'this'
I5895
tp14
a(S'enron'
I5282
tp15
a(S'i'
I4748
tp16
a(S'be'
I4623
tp17
a(S'that'
I4267
tp18
a(S'will'
I3783
tp19
a(S'have'
I3746
tp20
a(S'with'
I3570
tp21
a(S'your'
I3506
tp22
a(S'at'
I3371
tp23
a(S'we'
I3349
tp24
a(S's'
I3219
tp25
a(S'are'
I3045
tp26
a(S'it'
I2942
tp27
a(S'by'
I2852
tp28
a(S'com'
I2802
tp29
a(S'as'
I2793
tp30
a(S'from'
I2783
tp31
a(S'gas'
I2756
tp32
a(S'or'
I2723
tp33
a(S'not'
I2653
tp34
a(S'me'
I2416
tp35
a(S'deal'
I2381
tp36
a(S'if'
I2359
tp37
a(S'meter'
I2179
tp38
a(S'hpl'
I2116
tp39
a(S'please'
I1959
tp40
a(S're'
I1954
tp41
a(S'e'
I1774
tp42
a(S'any'
I1766
tp43
a(S'our'
I1765
tp44
a(S'corp'
I1753
tp45
a(S'can'
I1717
tp46
a(S'd'
I1699
tp47
a(S'all'
I1594
tp48
a(S'has'
I1562
tp49
a(S'was'
I1538
tp50
a(S'know'
I1465
tp51
a(S'an'
I1357
tp52
a(S'need'
I1357
tp53
a(S'forwarded'
I1292
tp54
a(S'new'
I1291
tp55
a(S't'
I1288
tp56
a(S'may'
I1273
tp57
a(S'up'
I1251
tp58
a(S'j'
I1239
tp59
a(S'mmbtu'
I1193
tp60
a(S'do'
I1157
tp61
a(S'should'
I1157
tp62
a(S'am'
I1103
tp63
a(S'get'
I1090
tp64
a(S'out'
I1077
tp65
a(S'see'
I1075
tp66
a(S'no'
I1060
tp67
a(S'there'
I1049
tp68
a(S'price'
I1036
tp69
a(S'daren'
I1024
tp70
a(S'but'
I1000
tp71
a(S'been'
I992
tp72
a(S'company'
I970
tp73
a(S'l'
I961
tp74
a(S'these'
I960
tp75
a(S'let'
I956
tp76
a(S'so'
I942
tp77
a(S'would'
I941
tp78
a(S'm'
I929
tp79
a(S'into'
I915
tp80
a(S'xls'
I915
tp81
a(S'farmer'
I911
tp82
a(S'attached'
I905
tp83
a(S'information'
I896
tp84
a(S'us'
I896
tp85
a(S'they'
I895
tp86
a(S'message'
I886
tp87
a(S'day'
I883
tp88
a(S'time'
I878
tp89
a(S'my'
I848
tp90
a(S'one'
I844
tp91
a(S'what'
I829
tp92
a(S'only'
I822
tp93
a(S'http'
I807
tp94
a(S'th'
I800
tp95
a(S'volume'
I787
tp96
a(S'mail'
I774
tp97
a(S'contract'
I770
tp98
a(S'which'
I755
tp99
a(S'month'
I754
tp100
a(S'more'
I747
tp101
a(S'robert'
I737
tp102
a(S'sitara'
I735
tp103
a(S'about'
I730
tp104
a(S'texas'
I729
tp105
a(S'nom'
I724
tp106
a(S'energy'
I718
tp107
a(S'pec'
I709
tp108
a(S'questions'
I705
tp109
a(S'www'
I690
tp110
a(S'deals'
I689
tp111
a(S'volumes'
I683
tp112
a(S'pm'
I677
tp113
a(S'ena'
I674
tp114
a(S'now'
I669
tp115
a(S'their'
I666
tp116
a(S'file'
I655
tp117
a(S'some'
I634
tp118
a(S'email'
I624
tp119
a(S'just'
I618
tp120
a(S'also'
I617
tp121
a(S'call'
I616
tp122
a(S'change'
I613
tp123
a(S'other'
I606
tp124
a(S'here'
I598
tp125
a(S'like'
I593
tp126
a(S'b'
I589
tp127
a(S'flow'
I585
tp128
a(S'net'
I584
tp129
a(S'following'
I569
tp130
a(S'p'
I566
tp131
a(S'production'
I559
tp132
a(S'when'
I553
tp133
a(S'over'
I552
tp134
a(S'back'
I541
tp135
a(S'want'
I534
tp136
a(S'original'
I533
tp137
a(S'them'
I520
tp138
a(S'below'
I513
tp139
a(S'o'
I510
tp140
a(S'ticket'
I509
tp141
a(S'c'
I509
tp142
a(S'he'
I505
tp143
a(S'could'
I502
tp144
a(S'make'
I497
tp145
a(S'inc'
I493
tp146
a(S'report'
I492
tp147
a(S'march'
I488
tp148
a(S'contact'
I483
tp149
a(S'days'
I480
tp150
a(S'were'
I480
tp151
a(S'list'
I476
tp152
a(S'nomination'
I474
tp153
a(S'system'
I474
tp154
a(S'who'
I473
tp155
a(S'april'
I473
tp156
a(S'number'
I472
tp157
a(S'sale'
I472
tp158
a(S'don'
I464
tp159
a(S'its'
I463
tp160
a(S'first'
I459
tp161
a(S'thanks'
I455
tp162
a(S'business'
I455
tp163
a(S'help'
I453
tp164
a(S'per'
I448
tp165
a(S'through'
I447
tp166
a(S'july'
I446
tp167
a(S'forward'
I444
tp168
a(S'font'
I443
tp169
a(S'free'
I442
tp170
a(S'daily'
I440
tp171
a(S'order'
I439
tp172
a(S'use'
I439
tp173
a(S'today'
I437
tp174
a(S'r'
I435
tp175
a(S'had'
I432
tp176
a(S'fw'
I429
tp177
a(S'set'
I423
tp178
a(S'plant'
I420
tp179
a(S'statements'
I419
tp180
a(S'go'
I416
tp181
a(S'gary'
I413
tp182
a(S'oil'
I411
tp183
a(S'line'
I408
tp184
a(S'sales'
I402
tp185
a(S'w'
I401
tp186
a(S'effective'
I396
tp187
a(S'well'
I393
tp188
a(S'tenaska'
I390
tp189
a(S'take'
I387
tp190
a(S'june'
I380
tp191
a(S'x'
I379
tp192
a(S'within'
I378
tp193
a(S'nbsp'
I377
tp194
a(S'she'
I376
tp195
a(S'how'
I375
tp196
a(S'north'
I371
tp197
a(S'america'
I370
tp198
a(S'being'
I369
tp199
a(S'under'
I365
tp200
a(S'next'
I363
tp201
a(S'week'
I362
tp202
a(S'than'
I360
tp203
a(S'january'
I359
tp204
a(S'service'
I356
tp205
a(S'last'
I356
tp206
a(S'two'
I356
tp207
a(S'purchase'
I354
tp208
a(S'name'
I352
tp209
a(S'less'
I348
tp210
a(S'height'
I347
tp211
a(S'off'
I345
tp212
a(S'agreement'
I345
tp213
a(S'k'
I344
tp214
a(S'work'
I342
tp215
a(S'tap'
I340
tp216
a(S'group'
I339
tp217
a(S'year'
I338
tp218
a(S'transport'
I337
tp219
a(S'based'
I337
tp220
a(S'after'
I335
tp221
a(S'think'
I334
tp222
a(S'available'
I333
tp223
a(S'each'
I333
tp224
a(S'made'
I333
tp225
a(S'due'
I328
tp226
a(S'changes'
I328
tp227
a(S'f'
I327
tp228
a(S'h'
I326
tp229
a(S'services'
I324
tp230
a(S'smith'
I322
tp231
a(S'management'
I321
tp232
a(S'send'
I321
tp233
a(S'll'
I319
tp234
a(S'sent'
I319
tp235
a(S'stock'
I319
tp236
a(S'co'
I317
tp237
a(S'needs'
I316
tp238
a(S'office'
I316
tp239
a(S'cotten'
I314
tp240
a(S'actuals'
I313
tp241
a(S'u'
I313
tp242
a(S'did'
I313
tp243
a(S'before'
I310
tp244
a(S'money'
I310
tp245
a(S'looking'
I308
tp246
a(S'then'
I307
tp247
a(S'pills'
I307
tp248
a(S'request'
I305
tp249
a(S'look'
I305
tp250
a(S'desk'
I305
tp251
a(S'online'
I305
tp252
a(S'ami'
I304
tp253
a(S'same'
I303
tp254
a(S'his'
I303
tp255
a(S'george'
I300
tp256
a(S'chokshi'
I299
tp257
a(S'point'
I298
tp258
a(S'delivery'
I296
tp259
a(S'august'
I294
tp260
a(S'friday'
I294
tp261
a(S'size'
I294
tp262
a(S'does'
I294
tp263
a(S'product'
I293
tp264
a(S'width'
I292
tp265
a(S'pat'
I292
tp266
a(S'iv'
I289
tp267
a(S'address'
I286
tp268
a(S'noms'
I286
tp269
a(S'above'
I285
tp270
a(S'sure'
I284
tp271
a(S'give'
I283
tp272
a(S'october'
I283
tp273
a(S'future'
I282
tp274
a(S'find'
I282
tp275
a(S'market'
I275
tp276
a(S'n'
I274
tp277
a(S'mary'
I273
tp278
a(S'vance'
I272
tp279
a(S'internet'
I269
tp280
a(S'melissa'
I269
tp281
a(S'said'
I269
tp282
a(S'still'
I268
tp283
a(S'link'
I267
tp284
a(S'those'
I267
tp285
a(S'account'
I267
tp286
a(S'down'
I267
tp287
a(S'hsc'
I266
tp288
a(S'rate'
I265
tp289
a(S'pipeline'
I264
tp290
a(S'people'
I264
tp291
a(S'best'
I263
tp292
a(S'actual'
I262
tp293
a(S'home'
I261
tp294
a(S'very'
I261
tp295
a(S'end'
I261
tp296
a(S'houston'
I260
tp297
a(S'tu'
I260
tp298
a(S'high'
I259
tp299
a(S'team'
I258
tp300
a(S'products'
I258
tp301
a(S'her'
I258
tp302
a(S'spot'
I257
tp303
a(S'many'
I257
tp304
a(S'currently'
I257
tp305
a(S'such'
I256
tp306
a(S'receive'
I256
tp307
a(S'good'
I256
tp308
a(S'process'
I255
tp309
a(S'feb'
I255
tp310
a(S'going'
I255
tp311
a(S'info'
I254
tp312
a(S'monday'
I254
tp313
a(S'again'
I253
tp314
a(S'david'
I253
tp315
a(S'lloyd'
I253
tp316
a(S'click'
I253
tp317
a(S'subject'
I253
tp318
a(S'both'
I253
tp319
a(S'jackie'
I252
tp320
a(S'december'
I251
tp321
a(S'na'
I251
tp322
a(S'total'
I251
tp323
a(S'lisa'
I250
tp324
a(S'september'
I250
tp325
a(S've'
I250
tp326
a(S'hours'
I246
tp327
a(S'until'
I246
tp328
a(S'resources'
I245
tp329
a(S'aol'
I245
tp330
a(S'because'
I245
tp331
a(S'february'
I244
tp332
a(S'where'
I242
tp333
a(S'investment'
I241
tp334
a(S'duke'
I241
tp335
a(S'g'
I241
tp336
a(S'issue'
I241
tp337
a(S'since'
I240
tp338
a(S'pay'
I240
tp339
a(S'show'
I239
tp340
a(S'computron'
I238
tp341
a(S'global'
I238
tp342
a(S'way'
I238
tp343
a(S'eastrans'
I237
tp344
a(S'activity'
I237
tp345
a(S'natural'
I237
tp346
a(S'most'
I237
tp347
a(S'place'
I237
tp348
a(S'offer'
I237
tp349
a(S'further'
I237
tp350
a(S'prices'
I236
tp351
a(S'graves'
I236
tp352
a(S'right'
I236
tp353
a(S'john'
I235
tp354
a(S'utilities'
I235
tp355
a(S'date'
I235
tp356
a(S'november'
I234
tp357
a(S'clynes'
I234
tp358
a(S'jan'
I232
tp359
a(S'securities'
I232
tp360
a(S'susan'
I231
tp361
a(S'meeting'
I231
tp362
a(S'hplc'
I230
tp363
a(S'julie'
I229
tp364
a(S'received'
I229
tp365
a(S'able'
I229
tp366
a(S'align'
I227
tp367
a(S'term'
I226
tp368
a(S'id'
I224
tp369
a(S'revised'
I223
tp370
a(S'pg'
I223
tp371
a(S'thursday'
I223
tp372
a(S'fee'
I222
tp373
a(S'hplno'
I222
tp374
a(S'trading'
I221
tp375
a(S'additional'
I219
tp376
a(S'txu'
I219
tp377
a(S'site'
I219
tp378
a(S'data'
I218
tp379
a(S'wellhead'
I218
tp380
a(S'reply'
I218
tp381
a(S'news'
I217
tp382
a(S'taylor'
I217
tp383
a(S'michael'
I216
tp384
a(S'unify'
I216
tp385
a(S'much'
I214
tp386
a(S'provide'
I214
tp387
a(S'access'
I214
tp388
a(S'note'
I214
tp389
a(S'every'
I213
tp390
a(S'lannou'
I213
tp391
a(S'between'
I212
tp392
a(S'tuesday'
I211
tp393
a(S'keep'
I211
tp394
a(S'review'
I211
tp395
a(S'tom'
I210
tp396
a(S'great'
I210
tp397
a(S'put'
I209
tp398
a(S'save'
I208
tp399
a(S'long'
I208
tp400
a(S'section'
I208
tp401
a(S'done'
I208
tp402
a(S'must'
I207
tp403
a(S'million'
I206
tp404
a(S'part'
I206
tp405
a(S'nd'
I206
tp406
a(S'v'
I206
tp407
a(S'check'
I206
tp408
a(S'trade'
I205
tp409
a(S'bob'
I204
tp410
a(S'created'
I204
tp411
a(S'steve'
I203
tp412
a(S'prior'
I202
tp413
a(S'copy'
I202
tp414
a(S'numbers'
I201
tp415
a(S'continue'
I201
tp416
a(S'world'
I200
tp417
a(S'hanks'
I200
tp418
a(S'demand'
I200
tp419
a(S'via'
I200
tp420
a(S'customer'
I199
tp421
a(S'transaction'
I199
tp422
a(S'contracts'
I199
tp423
a(S'phone'
I199
tp424
a(S'possible'
I198
tp425
a(S'pefs'
I198
tp426
a(S'special'
I197
tp427
a(S'without'
I197
tp428
a(S'meyers'
I197
tp429
a(S'used'
I197
tp430
a(S'software'
I197
tp431
a(S'regarding'
I197
tp432
a(S'months'
I197
tp433
a(S'buy'
I196
tp434
a(S'support'
I196
tp435
a(S'howard'
I196
tp436
a(S'cec'
I195
tp437
a(S'thru'
I195
tp438
a(S'meters'
I195
tp439
a(S'young'
I195
tp440
a(S'gcs'
I195
tp441
a(S'believe'
I195
tp442
a(S'entered'
I194
tp443
a(S'control'
I194
tp444
a(S'dec'
I193
tp445
a(S'face'
I193
tp446
a(S'create'
I192
tp447
a(S'weissman'
I191
tp448
a(S'st'
I191
tp449
a(S'hplo'
I190
tp450
a(S'supply'
I190
tp451
a(S'brian'
I190
tp452
a(S'color'
I190
tp453
a(S'come'
I190
tp454
a(S'customers'
I188
tp455
a(S'own'
I188
tp456
a(S'correct'
I188
tp457
a(S'web'
I187
tp458
a(S'allocation'
I187
tp459
a(S'development'
I186
tp460
a(S'using'
I186
tp461
a(S'soon'
I186
tp462
a(S'low'
I185
tp463
a(S'power'
I185
tp464
a(S'mark'
I185
tp465
a(S'problem'
I182
tp466
a(S'however'
I182
tp467
a(S'once'
I182
tp468
a(S'tickets'
I182
tp469
a(S'performance'
I181
tp470
a(S'border'
I181
tp471
a(S'manager'
I180
tp472
a(S'rates'
I179
tp473
a(S'center'
I178
tp474
a(S'companies'
I177
tp475
a(S'risk'
I177
tp476
a(S'details'
I176
tp477
a(S'needed'
I175
tp478
a(S'international'
I175
tp479
a(S'field'
I175
tp480
a(S'even'
I175
tp481
a(S'fuel'
I174
tp482
a(S'lee'
I174
tp483
a(S'paid'
I174
tp484
a(S'someone'
I174
tp485
a(S'doc'
I174
tp486
a(S'start'
I173
tp487
a(S'index'
I173
tp488
a(S'while'
I173
tp489
a(S'include'
I172
tp490
a(S'act'
I171
tp491
a(S'pricing'
I171
tp492
a(S'nominations'
I171
tp493
a(S'href'
I170
tp494
a(S'type'
I170
tp495
a(S'gathering'
I170
tp496
a(S'scheduled'
I170
tp497
a(S'during'
I169
tp498
a(S'anything'
I168
tp499
a(S'aimee'
I168
tp500
a(S'fuels'
I167
tp501
a(S'feel'
I167
tp502
a(S'getting'
I167
tp503
a(S'why'
I166
tp504
a(S'advice'
I166
tp505
a(S'sell'
I165
tp506
a(S'path'
I165
tp507
a(S'increase'
I165
tp508
a(S'works'
I164
tp509
a(S'issues'
I164
tp510
a(S'enronxgate'
I164
tp511
a(S'three'
I164
tp512
a(S'camp'
I163
tp513
a(S'financial'
I162
tp514
a(S'security'
I162
tp515
a(S'form'
I162
tp516
a(S'interest'
I162
tp517
a(S'either'
I162
tp518
a(S'plan'
I161
tp519
a(S'xp'
I161
tp520
a(S'family'
I161
tp521
a(S'another'
I160
tp522
a(S'current'
I160
tp523
a(S'src'
I160
tp524
a(S'top'
I160
tp525
a(S'spreadsheet'
I160
tp526
a(S'wednesday'
I159
tp527
a(S'working'
I159
tp528
a(S'read'
I159
tp529
a(S'allen'
I159
tp530
a(S'wynne'
I159
tp531
a(S'him'
I159
tp532
a(S'buyback'
I158
tp533
a(S'deliveries'
I158
tp534
a(S'add'
I158
tp535
a(S'firm'
I156
tp536
a(S'allocated'
I156
tp537
a(S'james'
I155
tp538
a(S'tx'
I154
tp539
a(S'results'
I154
tp540
a(S'got'
I154
tp541
a(S'marketing'
I154
tp542
a(S'stocks'
I154
tp543
a(S'calpine'
I153
tp544
a(S'logistics'
I153
tp545
a(S'might'
I153
tp546
a(S'operations'
I153
tp547
a(S'position'
I153
tp548
a(S'cost'
I152
tp549
a(S'party'
I152
tp550
a(S'zero'
I152
tp551
a(S'fax'
I152
tp552
a(S'pt'
I151
tp553
a(S'pops'
I151
tp554
a(S'old'
I151
tp555
a(S'flowed'
I151
tp556
a(S'scheduling'
I151
tp557
a(S'update'
I150
tp558
a(S'dollars'
I150
tp559
a(S'katy'
I150
tp560
a(S'gco'
I150
tp561
a(S'yahoo'
I149
tp562
a(S'including'
I149
tp563
a(S'follow'
I149
tp564
a(S'already'
I148
tp565
a(S'past'
I147
tp566
a(S'error'
I147
tp567
a(S'suite'
I147
tp568
a(S'stop'
I145
tp569
a(S'program'
I145
tp570
a(S'page'
I145
tp571
a(S'changed'
I145
tp572
a(S'book'
I145
tp573
a(S'equistar'
I144
tp574
a(S'operating'
I144
tp575
a(S'few'
I144
tp576
a(S'better'
I144
tp577
a(S'cotton'
I143
tp578
a(S'move'
I143
tp579
a(S'aep'
I142
tp580
a(S'ees'
I141
tp581
a(S'y'
I141
tp582
a(S'state'
I141
tp583
a(S'period'
I140
tp584
a(S'provided'
I140
tp585
a(S'rita'
I140
tp586
a(S'employees'
I140
tp587
a(S'morning'
I139
tp588
a(S'cd'
I139
tp589
a(S'hotmail'
I139
tp590
a(S'real'
I138
tp591
a(S'entex'
I138
tp592
a(S'exchange'
I138
tp593
a(S'swing'
I138
tp594
a(S'tomorrow'
I137
tp595
a(S'lst'
I137
tp596
a(S'counterparty'
I136
tp597
a(S'parker'
I136
tp598
a(S'visit'
I135
tp599
a(S'person'
I135
tp600
a(S'valid'
I135
tp601
a(S'follows'
I135
tp602
a(S'little'
I134
tp603
a(S'professional'
I134
tp604
a(S'megan'
I133
tp605
a(S'something'
I133
tp606
a(S'confirm'
I133
tp607
a(S'quality'
I133
tp608
a(S'brenda'
I132
tp609
a(S'storage'
I132
tp610
a(S'im'
I132
tp611
a(S'around'
I132
tp612
a(S'windows'
I132
tp613
a(S'case'
I131
tp614
a(S'accounting'
I131
tp615
a(S'ranch'
I131
tp616
a(S'problems'
I131
tp617
a(S'called'
I131
tp618
a(S'tax'
I131
tp619
a(S'teco'
I130
tp620
a(S'always'
I130
tp621
a(S'unsubscribe'
I130
tp622
a(S'fact'
I130
tp623
a(S'too'
I130
tp624
a(S'never'
I129
tp625
a(S'amount'
I129
tp626
a(S'coastal'
I129
tp627
a(S'acton'
I128
tp628
a(S'love'
I128
tp629
a(S'rodriguez'
I128
tp630
a(S'pipe'
I127
tp631
a(S'hope'
I127
tp632
a(S'project'
I127
tp633
a(S'limited'
I127
tp634
a(S'shut'
I127
tp635
a(S'full'
I126
tp636
a(S'survey'
I126
tp637
a(S'invoice'
I126
tp638
a(S'ray'
I126
tp639
a(S'credit'
I126
tp640
a(S'scott'
I125
tp641
a(S'yet'
I125
tp642
a(S'ic'
I125
tp643
a(S'anyone'
I125
tp644
a(S'carlos'
I125
tp645
a(S'wanted'
I125
tp646
a(S'years'
I124
tp647
a(S'soft'
I124
tp648
a(S'charlie'
I124
tp649
a(S'addition'
I123
tp650
a(S'advise'
I123
tp651
a(S'notice'
I123
tp652
a(S'lsk'
I123
tp653
a(S'donald'
I123
tp654
a(S'wish'
I122
tp655
a(S'hplnl'
I122
tp656
a(S'katherine'
I122
tp657
a(S'website'
I122
tp658
a(S'shares'
I121
tp659
a(S'cash'
I121
tp660
a(S'cover'
I121
tp661
a(S'imbalance'
I121
tp662
a(S'schumack'
I121
tp663
a(S'prescription'
I121
tp664
a(S'handle'
I120
tp665
a(S'united'
I120
tp666
a(S'big'
I120
tp667
a(S'weekend'
I119
tp668
a(S'everyone'
I119
tp669
a(S'city'
I119
tp670
a(S'style'
I119
tp671
a(S'stone'
I119
tp672
a(S'producer'
I119
tp673
a(S'clear'
I119
tp674
a(S'requested'
I119
tp675
a(S'payment'
I118
tp676
a(S'left'
I118
tp677
a(S'mobil'
I117
tp678
a(S'extend'
I116
tp679
a(S'small'
I116
tp680
a(S'intended'
I116
tp681
a(S'meet'
I116
tp682
a(S'technology'
I116
tp683
a(S'life'
I116
tp684
a(S'confirmed'
I116
tp685
a(S'shows'
I116
tp686
a(S'box'
I115
tp687
a(S'letter'
I115
tp688
a(S'else'
I115
tp689
a(S'schedule'
I115
tp690
a(S'sherlyn'
I115
tp691
a(S'lamphier'
I114
tp692
a(S'bill'
I114
tp693
a(S'newsletter'
I114
tp694
a(S'release'
I114
tp695
a(S'complete'
I114
tp696
a(S'richard'
I114
tp697
a(S'ever'
I114
tp698
a(S'herod'
I113
tp699
a(S'beginning'
I113
tp700
a(S'having'
I113
tp701
a(S'try'
I113
tp702
a(S'papayoti'
I113
tp703
a(S'mike'
I113
tp704
a(S'clem'
I113
tp705
a(S'anita'
I113
tp706
a(S'personal'
I112
tp707
a(S'cut'
I112
tp708
a(S'location'
I112
tp709
a(S'question'
I112
tp710
a(S'estimates'
I112
tp711
a(S'enter'
I112
tp712
a(S'feedback'
I112
tp713
a(S'things'
I112
tp714
a(S'found'
I111
tp715
a(S'cialis'
I111
tp716
a(S'central'
I110
tp717
a(S'terms'
I110
tp718
a(S'dow'
I110
tp719
a(S'area'
I110
tp720
a(S'necessary'
I109
tp721
a(S'third'
I109
tp722
a(S'listed'
I109
tp723
a(S'de'
I109
tp724
a(S'run'
I109
tp725
a(S'thomas'
I109
tp726
a(S'meds'
I109
tp727
a(S'reason'
I109
tp728
a(S'president'
I109
tp729
a(S'man'
I109
tp730
a(S'midcon'
I109
tp731
a(S'charge'
I109
tp732
a(S'thought'
I109
tp733
a(S'investing'
I108
tp734
a(S'ask'
I108
tp735
a(S'weeks'
I108
tp736
a(S'capital'
I108
tp737
a(S'added'
I108
tp738
a(S'star'
I107
tp739
a(S'extended'
I107
tp740
a(S'several'
I107
tp741
a(S'cannot'
I107
tp742
a(S'commercial'
I107
tp743
a(S'easy'
I107
tp744
a(S'view'
I107
tp745
a(S'union'
I106
tp746
a(S'lauri'
I106
tp747
a(S'beaumont'
I106
tp748
a(S'cause'
I105
tp749
a(S'times'
I105
tp750
a(S'industry'
I105
tp751
a(S'action'
I105
tp752
a(S'open'
I105
tp753
a(S'offers'
I105
tp754
a(S'monthly'
I105
tp755
a(S'states'
I104
tp756
a(S'stephanie'
I104
tp757
a(S'mailto'
I104
tp758
a(S'flash'
I104
tp759
a(S'download'
I104
tp760
a(S'neal'
I104
tp761
a(S'second'
I104
tp762
a(S'side'
I104
tp763
a(S'probably'
I104
tp764
a(S'application'
I103
tp765
a(S'basis'
I103
tp766
a(S'transfer'
I103
tp767
a(S'agree'
I103
tp768
a(S'interested'
I103
tp769
a(S'mcf'
I103
tp770
a(S'koch'
I103
tp771
a(S'mg'
I103
tp772
a(S'exxon'
I103
tp773
a(S'sept'
I103
tp774
a(S'microsoft'
I103
tp775
a(S'important'
I103
tp776
a(S'remove'
I103
tp777
a(S'doing'
I103
tp778
a(S'final'
I103
tp779
a(S'different'
I103
tp780
a(S'dfarmer'
I102
tp781
a(S'code'
I102
tp782
a(S'together'
I102
tp783
a(S'lp'
I102
tp784
a(S'value'
I102
tp785
a(S'requirements'
I102
tp786
a(S'exploration'
I102
tp787
a(S'mid'
I102
tp788
a(S'east'
I102
tp789
a(S'write'
I102
tp790
a(S'thank'
I102
tp791
a(S'receipt'
I101
tp792
a(S'afternoon'
I101
tp793
a(S'thu'
I101
tp794
a(S'late'
I101
tp795
a(S'enserch'
I101
tp796
a(S'everything'
I101
tp797
a(S'night'
I100
tp798
a(S'lsp'
I100
tp799
a(S'coming'
I100
tp800
a(S'tell'
I100
tp801
a(S'events'
I100
tp802
a(S'bank'
I100
tp803
a(S'cynthia'
I100
tp804
a(S'response'
I100
tp805
a(S'shipping'
I100
tp806
a(S'close'
I99
tp807
a(S'voip'
I99
tp808
a(S'corporation'
I99
tp809
a(S'direct'
I99
tp810
a(S'legal'
I99
tp811
a(S'options'
I99
tp812
a(S'country'
I99
tp813
a(S'ces'
I99
tp814
a(S'expected'
I99
tp815
a(S'really'
I99
tp816
a(S'redeliveries'
I98
tp817
a(S'victor'
I98
tp818
a(S'nominated'
I98
tp819
a(S'valero'
I98
tp820
a(S'priced'
I98
tp821
a(S'latest'
I98
tp822
a(S'potential'
I98
tp823
a(S'material'
I98
tp824
a(S'stack'
I98
tp825
a(S'etc'
I98
tp826
a(S'edward'
I98
tp827
a(S'loss'
I97
tp828
a(S'remember'
I97
tp829
a(S'private'
I97
tp830
a(S'baumbach'
I97
tp831
a(S'option'
I97
tp832
a(S'version'
I96
tp833
a(S'reinhardt'
I96
tp834
a(S'included'
I96
tp835
a(S'aware'
I96
tp836
a(S'hesse'
I96
tp837
a(S'public'
I96
tp838
a(S'drugs'
I96
tp839
a(S'longer'
I96
tp840
a(S'revision'
I95
tp841
a(S'kind'
I95
tp842
a(S'health'
I95
tp843
a(S'bgcolor'
I95
tp844
a(S'completed'
I95
tp845
a(S'related'
I95
tp846
a(S'asked'
I95
tp847
a(S'pro'
I95
tp848
a(S'say'
I95
tp849
a(S'discuss'
I95
tp850
a(S'viagra'
I95
tp851
a(S'away'
I94
tp852
a(S'systems'
I94
tp853
a(S'zone'
I94
tp854
a(S'ready'
I94
tp855
a(S'fill'
I94
tp856
a(S'carthage'
I94
tp857
a(S'plans'
I94
tp858
a(S'registered'
I94
tp859
a(S'mentioned'
I94
tp860
a(S'computer'
I94
tp861
a(S'industrial'
I94
tp862
a(S'regards'
I94
tp863
a(S'therefore'
I93
tp864
a(S'jim'
I93
tp865
a(S'sold'
I93
tp866
a(S'costs'
I93
tp867
a(S'image'
I93
tp868
a(S'physical'
I93
tp869
a(S'el'
I93
tp870
a(S'donna'
I93
tp871
a(S'track'
I93
tp872
a(S'growth'
I93
tp873
a(S'rd'
I93
tp874
a(S'browser'
I93
tp875
a(S'expect'
I93
tp876
a(S'reports'
I93
tp877
a(S'told'
I93
tp878
a(S'south'
I93
tp879
a(S'return'
I93
tp880
a(S'china'
I92
tp881
a(S'approximately'
I92
tp882
a(S'showing'
I92
tp883
a(S'stacey'
I92
tp884
a(S'duty'
I92
tp885
a(S'unit'
I92
tp886
a(S'begin'
I92
tp887
a(S'jones'
I92
tp888
a(S'cs'
I91
tp889
a(S'trying'
I91
tp890
a(S'verify'
I91
tp891
a(S'talk'
I91
tp892
a(S'hard'
I91
tp893
a(S'orders'
I91
tp894
a(S'eol'
I91
tp895
a(S'updated'
I91
tp896
a(S'source'
I90
tp897
a(S'strong'
I90
tp898
a(S'base'
I90
tp899
a(S'pathed'
I90
tp900
a(S'server'
I90
tp901
a(S'given'
I90
tp902
a(S'bryan'
I89
tp903
a(S'users'
I89
tp904
a(S'whole'
I89
tp905
a(S'purchases'
I89
tp906
a(S'oo'
I89
tp907
a(S'directly'
I89
tp908
a(S'risks'
I89
tp909
a(S'major'
I89
tp910
a(S'karen'
I89
tp911
a(S'luong'
I88
tp912
a(S'easttexas'
I88
tp913
a(S'level'
I88
tp914
a(S'poorman'
I88
tp915
a(S'ali'
I88
tp916
a(S'required'
I88
tp917
a(S'delivered'
I88
tp918
a(S'riley'
I88
tp919
a(S'bellamy'
I88
tp920
a(S'portfolio'
I88
tp921
a(S'didn'
I87
tp922
a(S'department'
I87
tp923
a(S'retail'
I87
tp924
a(S'thing'
I87
tp925
a(S'gif'
I87
tp926
a(S'nothing'
I87
tp927
a(S'cleburne'
I87
tp928
a(S'assistance'
I87
tp929
a(S'valley'
I87
tp930
a(S'paste'
I86
tp931
a(S'allow'
I86
tp932
a(S'items'
I86
tp933
a(S'avila'
I86
tp934
a(S'answer'
I86
tp935
a(S'gpgfin'
I86
tp936
a(S'nguyen'
I85
tp937
a(S'later'
I85
tp938
a(S'ensure'
I85
tp939
a(S'lone'
I85
tp940
a(S'hall'
I85
tp941
a(S'user'
I85
tp942
a(S'reference'
I85
tp943
a(S'mm'
I85
tp944
a(S'taken'
I85
tp945
a(S'spoke'
I84
tp946
a(S'facility'
I84
tp947
a(S'methanol'
I84
tp948
a(S'though'
I84
tp949
a(S'network'
I84
tp950
a(S'tabs'
I84
tp951
a(S'businesses'
I83
tp952
a(S'status'
I83
tp953
a(S'dy'
I83
tp954
a(S'apache'
I83
tp955
a(S'transportation'
I83
tp956
a(S'purchased'
I83
tp957
a(S'jeff'
I83
tp958
a(S'paliourg'
I83
tp959
a(S'taking'
I83
tp960
a(S'says'
I83
tp961
a(S'considered'
I83
tp962
a(S'yourself'
I83
tp963
a(S'fred'
I83
tp964
a(S'nov'
I82
tp965
a(S'assets'
I82
tp966
a(S'lamadrid'
I82
tp967
a(S'general'
I82
tp968
a(S'morris'
I82
tp969
a(S'oasis'
I82
tp970
a(S'federal'
I82
tp971
a(S'ltd'
I82
tp972
a(S'statement'
I82
tp973
a(S'brand'
I82
tp974
a(S'reflect'
I82
tp975
a(S'spam'
I81
tp976
a(S'bridge'
I81
tp977
a(S'compliance'
I81
tp978
a(S'ability'
I81
tp979
a(S'play'
I81
tp980
a(S'enrononline'
I81
tp981
a(S'availability'
I81
tp982
a(S'oct'
I81
tp983
a(S'fixed'
I80
tp984
a(S'short'
I80
tp985
a(S'hill'
I80
tp986
a(S'king'
I80
tp987
a(S'points'
I80
tp988
a(S'effort'
I80
tp989
a(S'aepin'
I80
tp990
a(S'understanding'
I80
tp991
a(S'cheryl'
I80
tp992
a(S'reliantenergy'
I80
tp993
a(S'chance'
I80
tp994
a(S'quick'
I80
tp995
a(S'key'
I79
tp996
a(S'green'
I79
tp997
a(S'valign'
I79
tp998
a(S'guys'
I79
tp999
a(S'understand'
I79
tp1000
a(S'god'
I79
tp1001
a(S'took'
I79
tp1002
a(S'capacity'
I79
tp1003
a(S'bring'
I79
tp1004
a(S'game'
I79
tp1005
a(S'wants'
I78
tp1006
a(S'meaning'
I78
tp1007
a(S'mx'
I78
tp1008
a(S'expectations'
I78
tp1009
a(S'hub'
I78
tp1010
a(S'property'
I78
tp1011
a(S'care'
I78
tp1012
a(S'johnson'
I78
tp1013
a(S'albrecht'
I78
tp1014
a(S'employee'
I78
tp1015
a(S'withers'
I78
tp1016
a(S'devon'
I77
tp1017
a(S'worldwide'
I77
tp1018
a(S'lose'
I77
tp1019
a(S'walker'
I77
tp1020
a(S'moved'
I77
tp1021
a(S'cernosek'
I77
tp1022
a(S'matter'
I77
tp1023
a(S'enw'
I77
tp1024
a(S'iferc'
I77
tp1025
a(S'large'
I77
tp1026
a(S'records'
I77
tp1027
a(S'referenced'
I77
tp1028
a(S'eileen'
I77
tp1029
a(S'ponton'
I77
tp1030
a(S'removed'
I77
tp1031
a(S'calls'
I77
tp1032
a(S'waha'
I76
tp1033
a(S'ship'
I76
tp1034
a(S'pc'
I76
tp1035
a(S'looks'
I76
tp1036
a(S'staff'
I76
tp1037
a(S'jennifer'
I76
tp1038
a(S'upon'
I76
tp1039
a(S'target'
I76
tp1040
a(S'enerfin'
I76
tp1041
a(S'travel'
I75
tp1042
a(S'making'
I75
tp1043
a(S'partner'
I75
tp1044
a(S'impact'
I75
tp1045
a(S'cp'
I75
tp1046
a(S'hear'
I75
tp1047
a(S'shall'
I75
tp1048
a(S'takes'
I75
tp1049
a(S'immediately'
I75
tp1050
a(S'listing'
I75
tp1051
a(S'sat'
I75
tp1052
a(S'went'
I75
tp1053
a(S'channel'
I75
tp1054
a(S'others'
I75
tp1055
a(S'paso'
I74
tp1056
a(S'stay'
I74
tp1057
a(S'earl'
I74
tp1058
a(S'tejas'
I74
tp1059
a(S'enough'
I74
tp1060
a(S'choose'
I74
tp1061
a(S'processing'
I74
tp1062
a(S'doesn'
I74
tp1063
a(S'cornhusker'
I74
tp1064
a(S'adobe'
I74
tp1065
a(S'starting'
I74
tp1066
a(S'includes'
I74
tp1067
a(S'distribution'
I74
tp1068
a(S'reserves'
I74
tp1069
a(S'sally'
I74
tp1070
a(S'superty'
I74
tp1071
a(S'transactions'
I74
tp1072
a(S'early'
I74
tp1073
a(S'approved'
I74
tp1074
a(S'publisher'
I74
tp1075
a(S'jpg'
I73
tp1076
a(S'saturday'
I73
tp1077
a(S'herrera'
I73
tp1078
a(S'moopid'
I73
tp1079
a(S'half'
I73
tp1080
a(S'solution'
I73
tp1081
a(S'pain'
I73
tp1082
a(S'drive'
I73
tp1083
a(S'password'
I73
tp1084
a(S'markets'
I73
tp1085
a(S'shell'
I73
tp1086
a(S'training'
I73
tp1087
a(S'hotlist'
I73
tp1088
a(S'content'
I73
tp1089
a(S'print'
I73
tp1090
a(S'excess'
I72
tp1091
a(S'happy'
I72
tp1092
a(S'vacation'
I72
tp1093
a(S'sex'
I72
tp1094
a(S'fund'
I72
tp1095
a(S'existing'
I72
tp1096
a(S'balance'
I72
tp1097
a(S'super'
I72
tp1098
a(S'experience'
I71
tp1099
a(S'appreciate'
I71
tp1100
a(S'non'
I71
tp1101
a(S'fwd'
I71
tp1102
a(S'won'
I71
tp1103
a(S'stella'
I71
tp1104
a(S'four'
I71
tp1105
a(S'wells'
I71
tp1106
a(S'sign'
I71
tp1107
a(S'card'
I71
tp1108
a(S'savings'
I71
tp1109
a(S'share'
I71
tp1110
a(S'text'
I71
tp1111
a(S'tisdale'
I71
tp1112
a(S'couple'
I70
tp1113
a(S'land'
I70
tp1114
a(S'flowing'
I70
tp1115
a(S'occur'
I70
tp1116
a(S'settlements'
I70
tp1117
a(S'images'
I70
tp1118
a(S'expense'
I70
tp1119
a(S'sun'
I70
tp1120
a(S'informed'
I70
tp1121
a(S'mar'
I70
tp1122
a(S'watch'
I70
tp1123
a(S'plus'
I70
tp1124
a(S'draft'
I70
tp1125
a(S'biz'
I70
tp1126
a(S'become'
I69
tp1127
a(S'neon'
I69
tp1128
a(S'photoshop'
I69
tp1129
a(S'entire'
I69
tp1130
a(S'instructions'
I69
tp1131
a(S'weight'
I69
tp1132
a(S'dynegy'
I69
tp1133
a(S'activities'
I69
tp1134
a(S'attention'
I69
tp1135
a(S'mr'
I69
tp1136
a(S'terry'
I69
tp1137
a(S'format'
I69
tp1138
a(S'williams'
I69
tp1139
a(S'darren'
I69
tp1140
a(S'cheap'
I69
tp1141
a(S'music'
I68
tp1142
a(S'contains'
I68
tp1143
a(S'friends'
I68
tp1144
a(S'against'
I68
tp1145
a(S'boas'
I68
tp1146
a(S'certain'
I68
tp1147
a(S'ago'
I68
tp1148
a(S'liz'
I68
tp1149
a(S'janet'
I68
tp1150
a(S'svcs'
I68
tp1151
a(S'dave'
I67
tp1152
a(S'director'
I67
tp1153
a(S'comments'
I67
tp1154
a(S'fun'
I67
tp1155
a(S'instant'
I67
tp1156
a(S'fast'
I67
tp1157
a(S'record'
I67
tp1158
a(S'rest'
I67
tp1159
a(S'ua'
I67
tp1160
a(S'investors'
I67
tp1161
a(S'held'
I67
tp1162
a(S'mind'
I67
tp1163
a(S'partners'
I67
tp1164
a(S'publication'
I67
tp1165
a(S'differ'
I67
tp1166
a(S'communications'
I67
tp1167
a(S'agent'
I67
tp1168
a(S'expedia'
I67
tp1169
a(S'safe'
I66
tp1170
a(S'intrastate'
I66
tp1171
a(S'kevin'
I66
tp1172
a(S'assist'
I66
tp1173
a(S'allocate'
I66
tp1174
a(S'document'
I66
tp1175
a(S'approval'
I66
tp1176
a(S'black'
I66
tp1177
a(S'none'
I66
tp1178
a(S'eric'
I66
tp1179
a(S'hakemack'
I66
tp1180
a(S'discussion'
I65
tp1181
a(S'missing'
I65
tp1182
a(S'jill'
I65
tp1183
a(S'colspan'
I65
tp1184
a(S'relief'
I65
tp1185
a(S'press'
I65
tp1186
a(S'al'
I65
tp1187
a(S'secure'
I65
tp1188
a(S'respect'
I65
tp1189
a(S'specific'
I65
tp1190
a(S'lower'
I65
tp1191
a(S'holmes'
I65
tp1192
a(S'expired'
I65
tp1193
a(S'technologies'
I65
tp1194
a(S'five'
I65
tp1195
a(S'cc'
I65
tp1196
a(S'active'
I65
tp1197
a(S'white'
I65
tp1198
a(S'determine'
I65
tp1199
a(S'pass'
I64
tp1200
a(S'video'
I64
tp1201
a(S'sorry'
I64
tp1202
a(S'men'
I64
tp1203
a(S'medical'
I64
tp1204
a(S'knle'
I64
tp1205
a(S'limit'
I64
tp1206
a(S'leave'
I64
tp1207
a(S'air'
I64
tp1208
a(S'gomes'
I64
tp1209
a(S'projects'
I64
tp1210
a(S'pinion'
I64
tp1211
a(S'doctor'
I64
tp1212
a(S'yesterday'
I64
tp1213
a(S'outage'
I63
tp1214
a(S'ken'
I63
tp1215
a(S'room'
I63
tp1216
a(S'blue'
I63
tp1217
a(S'confirmation'
I63
tp1218
a(S'pharmacy'
I63
tp1219
a(S'involve'
I63
tp1220
a(S'confidential'
I63
tp1221
a(S'messages'
I63
tp1222
a(S'estimated'
I63
tp1223
a(S'prc'
I63
tp1224
a(S'started'
I63
tp1225
a(S'officer'
I63
tp1226
a(S'gtc'
I63
tp1227
a(S'notify'
I63
tp1228
a(S'class'
I63
tp1229
a(S'opportunity'
I63
tp1230
a(S'database'
I63
tp1231
a(S'reach'
I63
tp1232
a(S'words'
I63
tp1233
a(S'demokritos'
I62
tp1234
a(S'bruce'
I62
tp1235
a(S'transition'
I62
tp1236
a(S'gulf'
I62
tp1237
a(S'tracked'
I62
tp1238
a(S'middle'
I62
tp1239
a(S'national'
I62
tp1240
a(S'provides'
I62
tp1241
a(S'rc'
I62
tp1242
a(S'average'
I62
tp1243
a(S'billed'
I62
tp1244
a(S'louisiana'
I62
tp1245
a(S'heard'
I62
tp1246
a(S'files'
I62
tp1247
a(S'mccoy'
I62
tp1248
a(S'light'
I62
tp1249
a(S'iit'
I62
tp1250
a(S'hot'
I62
tp1251
a(S'select'
I62
tp1252
a(S'mckay'
I62
tp1253
a(S'exactly'
I62
tp1254
a(S'offering'
I62
tp1255
a(S'dan'
I62
tp1256
a(S'wide'
I62
tp1257
a(S'roll'
I61
tp1258
a(S'perfect'
I61
tp1259
a(S'greater'
I61
tp1260
a(S'reveffo'
I61
tp1261
a(S'prize'
I61
tp1262
a(S'pick'
I61
tp1263
a(S'receiving'
I61
tp1264
a(S'sunday'
I61
tp1265
a(S'appear'
I61
tp1266
a(S'featured'
I61
tp1267
a(S'join'
I61
tp1268
a(S'html'
I61
tp1269
a(S'cdnow'
I61
tp1270
a(S'mops'
I61
tp1271
a(S'features'
I61
tp1272
a(S'event'
I61
tp1273
a(S'william'
I61
tp1274
a(S'california'
I61
tp1275
a(S'olsen'
I61
tp1276
a(S'estimate'
I60
tp1277
a(S'advised'
I60
tp1278
a(S'monitor'
I60
tp1279
a(S'elizabeth'
I60
tp1280
a(S'school'
I60
tp1281
a(S'bought'
I60
tp1282
a(S'near'
I60
tp1283
a(S'unaccounted'
I60
tp1284
a(S'evergreen'
I60
tp1285
a(S'package'
I60
tp1286
a(S'history'
I60
tp1287
a(S'expects'
I60
tp1288
a(S'difference'
I60
tp1289
a(S'paragraph'
I60
tp1290
a(S'common'
I60
tp1291
a(S'whether'
I60
tp1292
a(S'result'
I60
tp1293
a(S'title'
I60
tp1294
a(S'sources'
I60
tp1295
a(S'uncertainties'
I59
tp1296
a(S'worth'
I59
tp1297
a(S'discussions'
I59
tp1298
a(S'ceo'
I59
tp1299
a(S'brazos'
I59
tp1300
a(S'concerns'
I59
tp1301
a(S'goes'
I59
tp1302
a(S'turn'
I59
tp1303
a(S'php'
I59
tp1304
a(S'kimberly'
I59
tp1305
a(S'associated'
I59
tp1306
a(S'reduce'
I59
tp1307
a(S'representative'
I59
tp1308
a(S'wi'
I59
tp1309
a(S'members'
I59
tp1310
a(S'canada'
I59
tp1311
a(S'london'
I59
tp1312
a(S'communication'
I59
tp1313
a(S'increased'
I59
tp1314
a(S'asap'
I59
tp1315
a(S'committed'
I59
tp1316
a(S'claim'
I59
tp1317
a(S'trader'
I59
tp1318
a(S'waiting'
I59
tp1319
a(S'hour'
I58
tp1320
a(S'trevino'
I58
tp1321
a(S'la'
I58
tp1322
a(S'gift'
I58
tp1323
a(S'groups'
I58
tp1324
a(S'tufco'
I58
tp1325
a(S'involved'
I58
tp1326
a(S'southern'
I58
tp1327
a(S'calling'
I58
tp1328
a(S'corporate'
I57
tp1329
a(S'role'
I57
tp1330
a(S'west'
I57
tp1331
a(S'situation'
I57
tp1332
a(S'nor'
I57
tp1333
a(S'similar'
I57
tp1334
a(S'previously'
I57
tp1335
a(S'remain'
I57
tp1336
a(S'express'
I57
tp1337
a(S'respond'
I57
tp1338
a(S'county'
I57
tp1339
a(S'interconnect'
I57
tp1340
a(S'recent'
I57
tp1341
a(S'voice'
I57
tp1342
a(S'according'
I57
tp1343
a(S'ok'
I57
tp1344
a(S'came'
I57
tp1345
a(S'suggestions'
I57
tp1346
a(S'readers'
I57
tp1347
a(S'projections'
I57
tp1348
a(S'lot'
I57
tp1349
a(S'generic'
I57
tp1350
a(S'normally'
I57
tp1351
a(S'hold'
I57
tp1352
a(S'subscribers'
I57
tp1353
a(S'word'
I57
tp1354
a(S'purchasing'
I57
tp1355
a(S'resolve'
I57
tp1356
a(S'efforts'
I57
tp1357
a(S'opportunities'
I57
tp1358
a(S'learn'
I56
tp1359
a(S'american'
I56
tp1360
a(S'resolved'
I56
tp1361
a(S'promotions'
I56
tp1362
a(S'cass'
I56
tp1363
a(S'img'
I56
tp1364
a(S'agreed'
I56
tp1365
a(S'responsible'
I56
tp1366
a(S'parties'
I56
tp1367
a(S'sec'
I56
tp1368
a(S'winfree'
I56
tp1369
a(S'panenergy'
I56
tp1370
a(S'enjoy'
I56
tp1371
a(S'head'
I56
tp1372
a(S'outstanding'
I56
tp1373
a(S'member'
I56
tp1374
a(S'register'
I56
tp1375
a(S'rnd'
I56
tp1376
a(S'lead'
I56
tp1377
a(S'spinnaker'
I55
tp1378
a(S'usage'
I55
tp1379
a(S'believes'
I55
tp1380
a(S'beverly'
I55
tp1381
a(S'media'
I55
tp1382
a(S'assignment'
I55
tp1383
a(S'require'
I55
tp1384
a(S'model'
I55
tp1385
a(S'selling'
I55
tp1386
a(S'copano'
I55
tp1387
a(S'facilities'
I55
tp1388
a(S'gdp'
I55
tp1389
a(S'appropriate'
I55
tp1390
a(S'submit'
I55
tp1391
a(S'opinion'
I55
tp1392
a(S'ews'
I55
tp1393
a(S'identified'
I55
tp1394
a(S'factors'
I55
tp1395
a(S'greg'
I54
tp1396
a(S'manage'
I54
tp1397
a(S'across'
I54
tp1398
a(S'profile'
I54
tp1399
a(S'local'
I54
tp1400
a(S'job'
I54
tp1401
a(S'strangers'
I54
tp1402
a(S'girls'
I54
tp1403
a(S'digital'
I54
tp1404
a(S'delta'
I54
tp1405
a(S'goliad'
I54
tp1406
a(S'usa'
I54
tp1407
a(S'hesco'
I54
tp1408
a(S'vs'
I54
tp1409
a(S'deliver'
I54
tp1410
a(S'rolex'
I54
tp1411
a(S'suggest'
I54
tp1412
a(S'fees'
I54
tp1413
a(S'cf'
I54
tp1414
a(S'neuweiler'
I54
tp1415
a(S'bad'
I54
tp1416
a(S'registration'
I54
tp1417
a(S'quarter'
I53
tp1418
a(S'placed'
I53
tp1419
a(S'gain'
I53
tp1420
a(S'primary'
I53
tp1421
a(S'petroleum'
I53
tp1422
a(S'ei'
I53
tp1423
a(S'pre'
I53
tp1424
a(S'recipient'
I53
tp1425
a(S'seek'
I53
tp1426
a(S'instead'
I53
tp1427
a(S'course'
I53
tp1428
a(S'medications'
I53
tp1429
a(S'chairman'
I53
tp1430
a(S'force'
I53
tp1431
a(S'fine'
I53
tp1432
a(S'lake'
I53
tp1433
a(S'success'
I53
tp1434
a(S'notes'
I53
tp1435
a(S'basin'
I52
tp1436
a(S'assigned'
I52
tp1437
a(S'invoices'
I52
tp1438
a(S'discussed'
I52
tp1439
a(S'emails'
I52
tp1440
a(S'ext'
I52
tp1441
a(S'owner'
I52
tp1442
a(S'means'
I52
tp1443
a(S'ed'
I52
tp1444
a(S'ex'
I52
tp1445
a(S'gd'
I52
tp1446
a(S'reflects'
I52
tp1447
a(S'located'
I52
tp1448
a(S'apr'
I52
tp1449
a(S'asking'
I52
tp1450
a(S'least'
I52
tp1451
a(S'solutions'
I52
tp1452
a(S'known'
I52
tp1453
a(S'cds'
I52
tp1454
a(S'present'
I52
tp1455
a(S'along'
I52
tp1456
a(S'br'
I52
tp1457
a(S'age'
I52
tp1458
a(S'htmlimg'
I52
tp1459
a(S'house'
I52
tp1460
a(S'hanson'
I52
tp1461
a(S'body'
I52
tp1462
a(S'nominate'
I52
tp1463
a(S'sullivan'
I52
tp1464
a(S'agency'
I52
tp1465
a(S'various'
I52
tp1466
a(S'ones'
I52
tp1467
a(S'lots'
I51
tp1468
a(S'met'
I51
tp1469
a(S'wholesale'
I51
tp1470
a(S'store'
I51
tp1471
a(S'range'
I51
tp1472
a(S'recorded'
I51
tp1473
a(S'higher'
I51
tp1474
a(S'est'
I51
tp1475
a(S'worked'
I51
tp1476
a(S'linda'
I51
tp1477
a(S'car'
I51
tp1478
a(S'seen'
I51
tp1479
a(S'revenue'
I51
tp1480
a(S'properties'
I51
tp1481
a(S'brown'
I51
tp1482
a(S'kcs'
I51
tp1483
a(S'wait'
I51
tp1484
a(S'booked'
I51
tp1485
a(S'far'
I51
tp1486
a(S'women'
I51
tp1487
a(S'huge'
I50
tp1488
a(S'connection'
I50
tp1489
a(S'grant'
I50
tp1490
a(S'investor'
I50
tp1491
a(S'origination'
I50
tp1492
a(S'wilson'
I50
tp1493
a(S'providing'
I50
tp1494
a(S'summary'
I50
tp1495
a(S'pgev'
I50
tp1496
a(S'paths'
I50
tp1497
a(S'red'
I50
tp1498
a(S'advantage'
I50
tp1499
a(S'planning'
I50
tp1500
a(S'golf'
I50
tp1501
a(S'kelly'
I50
tp1502
a(S'encina'
I50
tp1503
a(S'item'
I50
tp1504
a(S'pipes'
I50
tp1505
a(S'match'
I50
tp1506
a(S'expenses'
I50
tp1507
a(S'focus'
I50
tp1508
a(S'beaty'
I50
tp1509
a(S'handling'
I50
tp1510
a(S'input'
I50
tp1511
a(S'draw'
I50
tp1512
a(S'apply'
I50
tp1513
a(S'bankruptcy'
I50
tp1514
a(S'analysis'
I50
tp1515
a(S'dth'
I49
tp1516
a(S'memo'
I49
tp1517
a(S'coupon'
I49
tp1518
a(S'behalf'
I49
tp1519
a(S'thousand'
I49
tp1520
a(S'friend'
I49
tp1521
a(S'herein'
I49
tp1522
a(S'names'
I49
tp1523
a(S'oi'
I49
tp1524
a(S'sa'
I49
tp1525
a(S'gisb'
I49
tp1526
a(S'mills'
I49
tp1527
a(S'initial'
I49
tp1528
a(S'talked'
I49
tp1529
a(S'button'
I49
tp1530
a(S'martin'
I49
tp1531
a(S'bit'
I49
tp1532
a(S'penis'
I49
tp1533
a(S'preliminary'
I49
tp1534
a(S'conversation'
I49
tp1535
a(S'multiple'
I49
tp1536
a(S'door'
I48
tp1537
a(S'research'
I48
tp1538
a(S'sending'
I48
tp1539
a(S'popular'
I48
tp1540
a(S'resume'
I48
tp1541
a(S'arrangements'
I48
tp1542
a(S'csikos'
I48
tp1543
a(S'applications'
I48
tp1544
a(S'cpr'
I48
tp1545
a(S'appears'
I48
tp1546
a(S'maintenance'
I48
tp1547
a(S'gb'
I48
tp1548
a(S'sandi'
I48
tp1549
a(S'represent'
I48
tp1550
a(S'hplnol'
I48
tp1551
a(S'paying'
I48
tp1552
a(S'texaco'
I48
tp1553
a(S'announced'
I48
tp1554
a(S'board'
I48
tp1555
a(S'conditions'
I48
tp1556
a(S'expires'
I48
tp1557
a(S'reporting'
I48
tp1558
a(S'acquisition'
I48
tp1559
a(S'objectives'
I48
tp1560
a(S'ca'
I48
tp1561
a(S'tried'
I48
tp1562
a(S'buyer'
I48
tp1563
a(S'normal'
I48
tp1564
a(S'attachment'
I48
tp1565
a(S'prod'
I48
tp1566
a(S'station'
I47
tp1567
a(S'chris'
I47
tp1568
a(S'positions'
I47
tp1569
a(S'somehow'
I47
tp1570
a(S'tetco'
I47
tp1571
a(S'earlier'
I47
tp1572
a(S'jo'
I47
tp1573
a(S'xanax'
I47
tp1574
a(S'pena'
I47
tp1575
a(S'individual'
I47
tp1576
a(S'recently'
I47
tp1577
a(S'valium'
I47
tp1578
a(S'td'
I47
tp1579
a(S'government'
I47
tp1580
a(S'happen'
I47
tp1581
a(S'decided'
I47
tp1582
a(S'discount'
I47
tp1583
a(S'broadband'
I47
tp1584
a(S'holding'
I47
tp1585
a(S'committee'
I47
tp1586
a(S'financing'
I47
tp1587
a(S'mailing'
I47
tp1588
a(S'running'
I47
tp1589
a(S'paper'
I46
tp1590
a(S'ftar'
I46
tp1591
a(S'test'
I46
tp1592
a(S'charlotte'
I46
tp1593
a(S'kristen'
I46
tp1594
a(S'quickly'
I46
tp1595
a(S'gave'
I46
tp1596
a(S'inform'
I46
tp1597
a(S'wife'
I46
tp1598
a(S'internal'
I46
tp1599
a(S'dr'
I46
tp1600
a(S'live'
I46
tp1601
a(S'comes'
I46
tp1602
a(S'hl'
I46
tp1603
a(S'titles'
I46
tp1604
a(S'attend'
I46
tp1605
a(S'minutes'
I46
tp1606
a(S'ms'
I46
tp1607
a(S'enterprise'
I46
tp1608
a(S'msn'
I46
tp1609
a(S'ooking'
I46
tp1610
a(S'rx'
I46
tp1611
a(S'spring'
I46
tp1612
a(S'highly'
I46
tp1613
a(S'affiliate'
I46
tp1614
a(S'ideas'
I46
tp1615
a(S'phillips'
I46
tp1616
a(S'floor'
I46
tp1617
a(S'benefit'
I46
tp1618
a(S'mobile'
I46
tp1619
a(S'privacy'
I46
tp1620
a(S'critical'
I46
tp1621
a(S'lonestar'
I46
tp1622
a(S'gotten'
I46
tp1623
a(S'dallas'
I46
tp1624
a(S'ebs'
I46
tp1625
a(S'percent'
I46
tp1626
a(S'minute'
I45
tp1627
a(S'amazon'
I45
tp1628
a(S'selected'
I45
tp1629
a(S'assumptions'
I45
tp1630
a(S'nominates'
I45
tp1631
a(S'unique'
I45
tp1632
a(S'stated'
I45
tp1633
a(S'accept'
I45
tp1634
a(S'immediate'
I45
tp1635
a(S'acceptance'
I45
tp1636
a(S'kinsey'
I45
tp1637
a(S'mitchell'
I45
tp1638
a(S'baxter'
I45
tp1639
a(S'correctly'
I45
tp1640
a(S'facts'
I45
tp1641
a(S'termination'
I45
tp1642
a(S'bid'
I45
tp1643
a(S'centana'
I45
tp1644
a(S'hawkins'
I45
tp1645
a(S'sweeney'
I45
tp1646
a(S'goals'
I45
tp1647
a(S'shop'
I45
tp1648
a(S'single'
I45
tp1649
a(S'sap'
I45
tp1650
a(S'building'
I45
tp1651
a(S'actually'
I45
tp1652
a(S'pill'
I45
tp1653
a(S'guarantee'
I45
tp1654
a(S'exclusive'
I45
tp1655
a(S'senior'
I45
tp1656
a(S'category'
I45
tp1657
a(S'extra'
I44
tp1658
a(S'among'
I44
tp1659
a(S'adjustment'
I44
tp1660
a(S'josey'
I44
tp1661
a(S'indicate'
I44
tp1662
a(S'rather'
I44
tp1663
a(S'egmnom'
I44
tp1664
a(S'lindley'
I44
tp1665
a(S'talking'
I44
tp1666
a(S'understood'
I44
tp1667
a(S'gold'
I44
tp1668
a(S'accuracy'
I44
tp1669
a(S'remaining'
I44
tp1670
a(S'arrangement'
I44
tp1671
a(S'kim'
I44
tp1672
a(S'simply'
I44
tp1673
a(S'accounts'
I44
tp1674
a(S'logos'
I44
tp1675
a(S'mean'
I44
tp1676
a(S'europe'
I44
tp1677
a(S'load'
I44
tp1678
a(S'purposes'
I44
tp1679
a(S'lowest'
I44
tp1680
a(S'updates'
I44
tp1681
a(S'road'
I44
tp1682
a(S'entry'
I44
tp1683
a(S'funds'
I44
tp1684
a(S'fri'
I43
tp1685
a(S'schneider'
I43
tp1686
a(S'additionally'
I43
tp1687
a(S'analyst'
I43
tp1688
a(S'father'
I43
tp1689
a(S'vols'
I43
tp1690
a(S'crude'
I43
tp1691
a(S'congress'
I43
tp1692
a(S'clearance'
I43
tp1693
a(S'documents'
I43
tp1694
a(S'kept'
I43
tp1695
a(S'speed'
I43
tp1696
a(S'resellers'
I43
tp1697
a(S'hi'
I43
tp1698
a(S'jr'
I43
tp1699
a(S'counterparties'
I43
tp1700
a(S'notified'
I43
tp1701
a(S'serve'
I43
tp1702
a(S'profit'
I43
tp1703
a(S'connor'
I43
tp1704
a(S'shipped'
I43
tp1705
a(S'cap'
I43
tp1706
a(S'anticipated'
I43
tp1707
a(S'jackson'
I43
tp1708
a(S'ftworth'
I43
tp1709
a(S'dollar'
I43
tp1710
a(S'almost'
I43
tp1711
a(S'aug'
I43
tp1712
a(S'paul'
I43
tp1713
a(S'q'
I43
tp1714
a(S'shopping'
I43
tp1715
a(S'epgt'
I43
tp1716
a(S'z'
I43
tp1717
a(S'fontfont'
I43
tp1718
a(S'wrong'
I42
tp1719
a(S'split'
I42
tp1720
a(S'letters'
I42
tp1721
a(S'historical'
I42
tp1722
a(S'invitation'
I42
tp1723
a(S'submitted'
I42
tp1724
a(S'lost'
I42
tp1725
a(S'membership'
I42
tp1726
a(S'foreign'
I42
tp1727
a(S'ocean'
I42
tp1728
a(S'buying'
I42
tp1729
a(S'gr'
I42
tp1730
a(S'rights'
I42
tp1731
a(S'billion'
I42
tp1732
a(S'maybe'
I42
tp1733
a(S'entity'
I42
tp1734
a(S'pep'
I42
tp1735
a(S'invest'
I42
tp1736
a(S'gra'
I42
tp1737
a(S'heidi'
I42
tp1738
a(S'transmission'
I42
tp1739
a(S'true'
I42
tp1740
a(S'hernandez'
I42
tp1741
a(S'asset'
I42
tp1742
a(S'mb'
I42
tp1743
a(S'jeffrey'
I42
tp1744
a(S'outside'
I42
tp1745
a(S'developed'
I42
tp1746
a(S'mtbe'
I42
tp1747
a(S'san'
I42
tp1748
a(S'legislation'
I42
tp1749
a(S'mtr'
I42
tp1750
a(S'baseload'
I42
tp1751
a(S'children'
I42
tp1752
a(S'brandywine'
I42
tp1753
a(S'clean'
I42
tp1754
a(S'hull'
I42
tp1755
a(S'cartwheel'
I42
tp1756
a(S'leader'
I42
tp1757
a(S'bottom'
I41
tp1758
a(S'seaman'
I41
tp1759
a(S'budget'
I41
tp1760
a(S'wed'
I41
tp1761
a(S'payments'
I41
tp1762
a(S'alternative'
I41
tp1763
a(S'revisions'
I41
tp1764
a(S'dealers'
I41
tp1765
a(S'exception'
I41
tp1766
a(S'window'
I41
tp1767
a(S'pipelines'
I41
tp1768
a(S'rev'
I41
tp1769
a(S'example'
I41
tp1770
a(S'guess'
I41
tp1771
a(S'standard'
I41
tp1772
a(S'bammel'
I41
tp1773
a(S'guadalupe'
I41
tp1774
a(S'kenneth'
I41
tp1775
a(S'topica'
I41
tp1776
a(S'pathing'
I41
tp1777
a(S'equity'
I41
tp1778
a(S'braband'
I41
tp1779
a(S'claims'
I41
tp1780
a(S'annual'
I41
tp1781
a(S'lines'
I41
tp1782
a(S'merchant'
I41
tp1783
a(S'wallis'
I41
tp1784
a(S'zivley'
I41
tp1785
a(S'juno'
I41
tp1786
a(S'pull'
I40
tp1787
a(S'contents'
I40
tp1788
a(S'investments'
I40
tp1789
a(S'yes'
I40
tp1790
a(S'proposed'
I40
tp1791
a(S'edition'
I40
tp1792
a(S'en'
I40
tp1793
a(S'concern'
I40
tp1794
a(S'hr'
I40
tp1795
a(S'calendar'
I40
tp1796
a(S'throughout'
I40
tp1797
a(S'giving'
I40
tp1798
a(S'inherent'
I40
tp1799
a(S'usb'
I40
tp1800
a(S'rm'
I40
tp1801
a(S'participate'
I40
tp1802
a(S'cable'
I40
tp1803
a(S'morgan'
I40
tp1804
a(S'checked'
I40
tp1805
a(S'enquiries'
I40
tp1806
a(S'deer'
I40
tp1807
a(S'myself'
I40
tp1808
a(S'trip'
I40
tp1809
a(S'alt'
I40
tp1810
a(S'six'
I40
tp1811
a(S'edmondson'
I40
tp1812
a(S'darial'
I40
tp1813
a(S'speculative'
I40
tp1814
a(S'build'
I40
tp1815
a(S'tammy'
I40
tp1816
a(S'telephone'
I40
tp1817
a(S'fat'
I40
tp1818
a(S'moving'
I40
tp1819
a(S'reliant'
I40
tp1820
a(S'intent'
I39
tp1821
a(S'chad'
I39
tp1822
a(S'airmail'
I39
tp1823
a(S'dvd'
I39
tp1824
a(S'policy'
I39
tp1825
a(S'minimum'
I39
tp1826
a(S'texoma'
I39
tp1827
a(S'positive'
I39
tp1828
a(S'sea'
I39
tp1829
a(S'avoid'
I39
tp1830
a(S'stephen'
I39
tp1831
a(S'austin'
I39
tp1832
a(S'isn'
I39
tp1833
a(S'changing'
I39
tp1834
a(S'resulting'
I39
tp1835
a(S'evening'
I39
tp1836
a(S'launch'
I39
tp1837
a(S'conflict'
I39
tp1838
a(S'prepared'
I39
tp1839
a(S'matt'
I39
tp1840
a(S'cowboy'
I39
tp1841
a(S'stand'
I39
tp1842
a(S'gets'
I39
tp1843
a(S'hol'
I39
tp1844
a(S'quantity'
I39
tp1845
a(S'haven'
I39
tp1846
a(S'commission'
I39
tp1847
a(S'uae'
I39
tp1848
a(S'citibank'
I39
tp1849
a(S'programs'
I39
tp1850
a(S'concerning'
I39
tp1851
a(S'front'
I39
tp1852
a(S'effect'
I39
tp1853
a(S'strategy'
I39
tp1854
a(S'manual'
I39
tp1855
a(S'finally'
I39
tp1856
a(S'built'
I39
tp1857
a(S'chief'
I39
tp1858
a(S'jaquet'
I39
tp1859
a(S'executive'
I39
tp1860
a(S'reduction'
I39
tp1861
a(S'thousands'
I39
tp1862
a(S'terminated'
I38
tp1863
a(S'tess'
I38
tp1864
a(S'hplr'
I38
tp1865
a(S'eel'
I38
tp1866
a(S'detail'
I38
tp1867
a(S'sum'
I38
tp1868
a(S'leading'
I38
tp1869
a(S'pleased'
I38
tp1870
a(S'weather'
I38
tp1871
a(S'child'
I38
tp1872
a(S'harris'
I38
tp1873
a(S'adjusted'
I38
tp1874
a(S'sheet'
I38
tp1875
a(S'prepare'
I38
tp1876
a(S'quote'
I38
tp1877
a(S'guaranteed'
I38
tp1878
a(S'ga'
I38
tp1879
a(S'cellpadding'
I38
tp1880
a(S'christy'
I38
tp1881
a(S'idea'
I38
tp1882
a(S'crow'
I38
tp1883
a(S'crosstex'
I38
tp1884
a(S'warning'
I38
tp1885
a(S'issued'
I38
tp1886
a(S'cross'
I38
tp1887
a(S'owe'
I38
tp1888
a(S'venturatos'
I38
tp1889
a(S'availabilities'
I38
tp1890
a(S'award'
I38
tp1891
a(S'advance'
I38
tp1892
a(S'min'
I38
tp1893
a(S'announce'
I38
tp1894
a(S'hotel'
I38
tp1895
a(S'pertaining'
I38
tp1896
a(S'griffin'
I38
tp1897
a(S'itoy'
I38
tp1898
a(S'schedulers'
I38
tp1899
a(S'whom'
I38
tp1900
a(S'operational'
I38
tp1901
a(S'gottlob'
I37
tp1902
a(S'emirates'
I37
tp1903
a(S'individuals'
I37
tp1904
a(S'stuff'
I37
tp1905
a(S'daniel'
I37
tp1906
a(S'approx'
I37
tp1907
a(S'tina'
I37
tp1908
a(S'construed'
I37
tp1909
a(S'beck'
I37
tp1910
a(S'description'
I37
tp1911
a(S'port'
I37
tp1912
a(S'ferc'
I37
tp1913
a(S'managing'
I37
tp1914
a(S'zonedubai'
I37
tp1915
a(S'aeor'
I37
tp1916
a(S'overnight'
I37
tp1917
a(S'glover'
I37
tp1918
a(S'luck'
I37
tp1919
a(S'carry'
I37
tp1920
a(S'dates'
I37
tp1921
a(S'broker'
I37
tp1922
a(S'town'
I37
tp1923
a(S'charles'
I37
tp1924
a(S'except'
I37
tp1925
a(S'eff'
I37
tp1926
a(S'clickathome'
I37
tp1927
a(S'looked'
I37
tp1928
a(S'column'
I37
tp1929
a(S'revenues'
I37
tp1930
a(S'customerservice'
I37
tp1931
a(S'alert'
I37
tp1932
a(S'licensed'
I37
tp1933
a(S'welcome'
I37
tp1934
a(S'cal'
I37
tp1935
a(S'heart'
I37
tp1936
a(S'otherwise'
I37
tp1937
a(S'step'
I37
tp1938
a(S'park'
I37
tp1939
a(S'materia'
I37
tp1940
a(S'games'
I37
tp1941
a(S'dudley'
I37
tp1942
a(S'seller'
I37
tp1943
a(S'traders'
I37
tp1944
a(S'stretch'
I37
tp1945
a(S'summer'
I37
tp1946
a(S'robin'
I37
tp1947
a(S'charges'
I37
tp1948
a(S'main'
I37
tp1949
a(S'quantities'
I37
tp1950
a(S'generation'
I37
tp1951
a(S'tech'
I36
tp1952
a(S'villarreal'
I36
tp1953
a(S'realize'
I36
tp1954
a(S'ordering'
I36
tp1955
a(S'equipment'
I36
tp1956
a(S'outlook'
I36
tp1957
a(S'sexual'
I36
tp1958
a(S'listbot'
I36
tp1959
a(S'edit'
I36
tp1960
a(S'reeves'
I36
tp1961
a(S'contained'
I36
tp1962
a(S'benoit'
I36
tp1963
a(S'vaughn'
I36
tp1964
a(S'cold'
I36
tp1965
a(S'eb'
I36
tp1966
a(S'ahead'
I36
tp1967
a(S'deciding'
I36
tp1968
a(S'delete'
I36
tp1969
a(S'finance'
I36
tp1970
a(S'behind'
I36
tp1971
a(S'island'
I36
tp1972
a(S'miss'
I36
tp1973
a(S'leslie'
I36
tp1974
a(S'eiben'
I36
tp1975
a(S'se'
I36
tp1976
a(S'post'
I36
tp1977
a(S'forms'
I36
tp1978
a(S'lon'
I36
tp1979
a(S'tailgate'
I36
tp1980
a(S'org'
I36
tp1981
a(S'adjustments'
I36
tp1982
a(S'simple'
I36
tp1983
a(S'saw'
I36
tp1984
a(S'patti'
I36
tp1985
a(S'tools'
I36
tp1986
a(S'law'
I36
tp1987
a(S'double'
I36
tp1988
a(S'makes'
I35
tp1989
a(S'pressure'
I35
tp1990
a(S'indicated'
I35
tp1991
a(S'mcmills'
I35
tp1992
a(S'pool'
I35
tp1993
a(S'links'
I35
tp1994
a(S'sites'
I35
tp1995
a(S'knowledge'
I35
tp1996
a(S'female'
I35
tp1997
a(S'holiday'
I35
tp1998
a(S'successful'
I35
tp1999
a(S'detailed'
I35
tp2000
a(S'mazowita'
I35
tp2001
a(S'foot'
I35
tp2002
a(S'auto'
I35
tp2003
a(S'advisor'
I35
tp2004
a(S'yvette'
I35
tp2005
a(S'region'
I35
tp2006
a(S'screen'
I35
tp2007
a(S'unable'
I35
tp2008
a(S'brent'
I35
tp2009
a(S'helps'
I35
tp2010
a(S'meredith'
I35
tp2011
a(S'cook'
I35
tp2012
a(S'kathryn'
I35
tp2013
a(S'adjust'
I35
tp2014
a(S'river'
I35
tp2015
a(S'bryce'
I35
tp2016
a(S'charged'
I35
tp2017
a(S'contain'
I35
tp2018
a(S'otc'
I35
tp2019
a(S'dial'
I35
tp2020
a(S'outages'
I35
tp2021
a(S'mailings'
I34
tp2022
a(S'kids'
I34
tp2023
a(S'fix'
I34
tp2024
a(S'corrected'
I34
tp2025
a(S'indicating'
I34
tp2026
a(S'decision'
I34
tp2027
a(S'conference'
I34
tp2028
a(S'reliable'
I34
tp2029
a(S'levels'
I34
tp2030
a(S'drug'
I34
tp2031
a(S'shown'
I34
tp2032
a(S'husband'
I34
tp2033
a(S'designed'
I34
tp2034
a(S'cindy'
I34
tp2035
a(S'grow'
I34
tp2036
a(S'search'
I34
tp2037
a(S'mo'
I34
tp2038
a(S'meetings'
I34
tp2039
a(S'tv'
I34
tp2040
a(S'tr'
I34
tp2041
a(S'measurement'
I34
tp2042
a(S'tri'
I34
tp2043
a(S'payroll'
I34
tp2044
a(S'interview'
I34
tp2045
a(S'regular'
I34
tp2046
a(S'coast'
I34
tp2047
a(S'severson'
I34
tp2048
a(S'allocations'
I34
tp2049
a(S'wireless'
I34
tp2050
a(S'environment'
I34
tp2051
a(S'seems'
I34
tp2052
a(S'greif'
I34
tp2053
a(S'consumers'
I34
tp2054
a(S'urgent'
I34
tp2055
a(S'rock'
I34
tp2056
a(S'particular'
I34
tp2057
a(S'benefits'
I34
tp2058
a(S'copies'
I34
tp2059
a(S'art'
I34
tp2060
a(S'intend'
I33
tp2061
a(S'avails'
I33
tp2062
a(S'acquire'
I33
tp2063
a(S'likely'
I33
tp2064
a(S'cilco'
I33
tp2065
a(S'managers'
I33
tp2066
a(S'happening'
I33
tp2067
a(S'internationa'
I33
tp2068
a(S'pcx'
I33
tp2069
a(S'gmt'
I33
tp2070
a(S'liquids'
I33
tp2071
a(S'ce'
I33
tp2072
a(S'da'
I33
tp2073
a(S'mmbtus'
I33
tp2074
a(S'fully'
I33
tp2075
a(S'charset'
I33
tp2076
a(S'killing'
I33
tp2077
a(S'significant'
I33
tp2078
a(S'lottery'
I33
tp2079
a(S'timing'
I33
tp2080
a(S'verdana'
I33
tp2081
a(S'studio'
I33
tp2082
a(S'vicodin'
I33
tp2083
a(S'speckels'
I33
tp2084
a(S'midstream'
I33
tp2085
a(S'flynn'
I33
tp2086
a(S'mack'
I33
tp2087
a(S'preparation'
I33
tp2088
a(S'personnel'
I33
tp2089
a(S'eye'
I33
tp2090
a(S'mix'
I33
tp2091
a(S'multi'
I33
tp2092
a(S'vice'
I33
tp2093
a(S'sit'
I33
tp2094
a(S'pager'
I33
tp2095
a(S'fares'
I33
tp2096
a(S'structure'
I33
tp2097
a(S'parent'
I33
tp2098
a(S'usd'
I33
tp2099
a(S'administration'
I33
tp2100
a(S'spencer'
I33
tp2101
a(S'closed'
I33
tp2102
a(S'chevron'
I32
tp2103
a(S'choice'
I32
tp2104
a(S'benedict'
I32
tp2105
a(S'self'
I32
tp2106
a(S'taxes'
I32
tp2107
a(S'drop'
I32
tp2108
a(S'pictures'
I32
tp2109
a(S'ngo'
I32
tp2110
a(S'assurance'
I32
tp2111
a(S'acts'
I32
tp2112
a(S'teams'
I32
tp2113
a(S'dolphin'
I32
tp2114
a(S'electric'
I32
tp2115
a(S'thus'
I32
tp2116
a(S'proven'
I32
tp2117
a(S'ad'
I32
tp2118
a(S'davis'
I32
tp2119
a(S'treatment'
I32
tp2120
a(S'joanie'
I32
tp2121
a(S'pretty'
I32
tp2122
a(S'identify'
I32
tp2123
a(S'notification'
I32
tp2124
a(S'areas'
I32
tp2125
a(S'wc'
I32
tp2126
a(S'producers'
I32
tp2127
a(S'largest'
I32
tp2128
a(S'previous'
I32
tp2129
a(S'ti'
I32
tp2130
a(S'rebecca'
I32
tp2131
a(S'quit'
I32
tp2132
a(S'lesson'
I32
tp2133
a(S'sdsnom'
I32
tp2134
a(S'edu'
I32
tp2135
a(S'swift'
I32
tp2136
a(S'player'
I32
tp2137
a(S'waste'
I32
tp2138
a(S'graphics'
I32
tp2139
a(S'htm'
I32
tp2140
a(S'addressed'
I32
tp2141
a(S'competitive'
I32
tp2142
a(S'premium'
I32
tp2143
a(S'sds'
I32
tp2144
a(S'unless'
I32
tp2145
a(S'charlene'
I32
tp2146
a(S'incorrect'
I32
tp2147
a(S'separate'
I32
tp2148
a(S'allows'
I32
tp2149
a(S'hit'
I32
tp2150
a(S'intraday'
I32
tp2151
a(S'netco'
I32
tp2152
a(S'impacted'
I31
tp2153
a(S'locations'
I31
tp2154
a(S'nomad'
I31
tp2155
a(S'tonight'
I31
tp2156
a(S'diligence'
I31
tp2157
a(S'prayer'
I31
tp2158
a(S'reviewed'
I31
tp2159
a(S'powerful'
I31
tp2160
a(S'education'
I31
tp2161
a(S'rivers'
I31
tp2162
a(S'websites'
I31
tp2163
a(S'joe'
I31
tp2164
a(S'solicitation'
I31
tp2165
a(S'predictions'
I31
tp2166
a(S'ft'
I31
tp2167
a(S'completion'
I31
tp2168
a(S'language'
I31
tp2169
a(S'desks'
I31
tp2170
a(S'diamond'
I31
tp2171
a(S'resuits'
I31
tp2172
a(S'banking'
I31
tp2173
a(S'posted'
I31
tp2174
a(S'zeroed'
I31
tp2175
a(S'medication'
I31
tp2176
a(S'log'
I31
tp2177
a(S'properly'
I31
tp2178
a(S'completely'
I31
tp2179
a(S'street'
I31
tp2180
a(S'explode'
I31
tp2181
a(S'exercise'
I31
tp2182
a(S'decrease'
I31
tp2183
a(S'proper'
I31
tp2184
a(S'sports'
I31
tp2185
a(S'actions'
I31
tp2186
a(S'lyondell'
I31
tp2187
a(S'anywhere'
I31
tp2188
a(S'billing'
I31
tp2189
a(S'alone'
I31
tp2190
a(S'noon'
I31
tp2191
a(S'consider'
I31
tp2192
a(S'certificate'
I31
tp2193
a(S'vegas'
I31
tp2194
a(S'club'
I31
tp2195
a(S'automatically'
I31
tp2196
a(S'whatever'
I31
tp2197
a(S'filings'
I31
tp2198
a(S'specials'
I31
tp2199
a(S'affordable'
I31
tp2200
a(S'fyi'
I31
tp2201
a(S'intra'
I31
tp2202
a(S'rick'
I30
tp2203
a(S'russ'
I30
tp2204
a(S'transco'
I30
tp2205
a(S'guide'
I30
tp2206
a(S'entertainment'
I30
tp2207
a(S'hector'
I30
tp2208
a(S'presently'
I30
tp2209
a(S'rom'
I30
tp2210
a(S'joint'
I30
tp2211
a(S'torch'
I30
tp2212
a(S'competition'
I30
tp2213
a(S'dell'
I30
tp2214
a(S'affected'
I30
tp2215
a(S'accountant'
I30
tp2216
a(S'opm'
I30
tp2217
a(S'assume'
I30
tp2218
a(S'killed'
I30
tp2219
a(S'hottlist'
I30
tp2220
a(S'spend'
I30
tp2221
a(S'aquila'
I30
tp2222
a(S'functionality'
I30
tp2223
a(S'scheduler'
I30
tp2224
a(S'settlement'
I30
tp2225
a(S'blank'
I30
tp2226
a(S'pi'
I30
tp2227
a(S'molly'
I30
tp2228
a(S'solid'
I30
tp2229
a(S'organization'
I30
tp2230
a(S'son'
I30
tp2231
a(S'discovered'
I30
tp2232
a(S'responsibilities'
I30
tp2233
a(S'meant'
I30
tp2234
a(S'entries'
I30
tp2235
a(S'cart'
I30
tp2236
a(S'rules'
I30
tp2237
a(S'valadez'
I30
tp2238
a(S'briley'
I30
tp2239
a(S'deposit'
I30
tp2240
a(S'materially'
I30
tp2241
a(S'purpose'
I30
tp2242
a(S'intercompany'
I30
tp2243
a(S'offices'
I30
tp2244
a(S'yap'
I30
tp2245
a(S'rolled'
I30
tp2246
a(S'header'
I30
tp2247
a(S'soma'
I30
tp2248
a(S'nat'
I30
tp2249
a(S'resolution'
I30
tp2250
a(S'noted'
I30
tp2251
a(S'often'
I30
tp2252
a(S'jason'
I30
tp2253
a(S'analysts'
I30
tp2254
a(S'anderson'
I30
tp2255
a(S'tim'
I30
tp2256
a(S'apple'
I30
tp2257
a(S'york'
I30
tp2258
a(S'atleast'
I30
tp2259
a(S'pulled'
I29
tp2260
a(S'operation'
I29
tp2261
a(S'marta'
I29
tp2262
a(S'hundred'
I29
tp2263
a(S'pack'
I29
tp2264
a(S'foresee'
I29
tp2265
a(S'although'
I29
tp2266
a(S'movies'
I29
tp2267
a(S'reached'
I29
tp2268
a(S'setting'
I29
tp2269
a(S'written'
I29
tp2270
a(S'redmond'
I29
tp2271
a(S'victoria'
I29
tp2272
a(S'gone'
I29
tp2273
a(S'official'
I29
tp2274
a(S'mcgee'
I29
tp2275
a(S'requests'
I29
tp2276
a(S'bed'
I29
tp2277
a(S'hp'
I29
tp2278
a(S'chemical'
I29
tp2279
a(S'tool'
I29
tp2280
a(S'heal'
I29
tp2281
a(S'strictly'
I29
tp2282
a(S'units'
I29
tp2283
a(S'shareholder'
I29
tp2284
a(S'table'
I29
tp2285
a(S'feature'
I29
tp2286
a(S'rr'
I29
tp2287
a(S'inside'
I29
tp2288
a(S'sr'
I29
tp2289
a(S'resource'
I29
tp2290
a(S'beliefs'
I29
tp2291
a(S'tongue'
I29
tp2292
a(S'protocol'
I29
tp2293
a(S'reviews'
I29
tp2294
a(S'larry'
I29
tp2295
a(S'lease'
I29
tp2296
a(S'apparently'
I29
tp2297
a(S'proposal'
I29
tp2298
a(S'trust'
I29
tp2299
a(S'llc'
I29
tp2300
a(S'commodity'
I29
tp2301
a(S'adonis'
I29
tp2302
a(S'generated'
I29
tp2303
a(S'cellspacing'
I29
tp2304
a(S'continued'
I29
tp2305
a(S'rule'
I29
tp2306
a(S'released'
I29
tp2307
a(S'couldn'
I29
tp2308
a(S'external'
I29
tp2309
a(S'lateral'
I29
tp2310
a(S'girl'
I29
tp2311
a(S'hillary'
I29
tp2312
a(S'compensation'
I29
tp2313
a(S'ram'
I29
tp2314
a(S'laptop'
I29
tp2315
a(S'master'
I28
tp2316
a(S'verified'
I28
tp2317
a(S'respective'
I28
tp2318
a(S'comstock'
I28
tp2319
a(S'understands'
I28
tp2320
a(S'hand'
I28
tp2321
a(S'humble'
I28
tp2322
a(S'producing'
I28
tp2323
a(S'ecom'
I28
tp2324
a(S'lists'
I28
tp2325
a(S'advises'
I28
tp2326
a(S'conoco'
I28
tp2327
a(S'sean'
I28
tp2328
a(S'standards'
I28
tp2329
a(S'gains'
I28
tp2330
a(S'wasn'
I28
tp2331
a(S'pics'
I28
tp2332
a(S'dl'
I28
tp2333
a(S'em'
I28
tp2334
a(S'promotion'
I28
tp2335
a(S'developing'
I28
tp2336
a(S'documentation'
I28
tp2337
a(S'elsa'
I28
tp2338
a(S'consultation'
I28
tp2339
a(S'dated'
I28
tp2340
a(S'den'
I28
tp2341
a(S'putting'
I28
tp2342
a(S'eight'
I28
tp2343
a(S'henderson'
I28
tp2344
a(S'hughes'
I28
tp2345
a(S'woman'
I28
tp2346
a(S'design'
I28
tp2347
a(S'helpful'
I28
tp2348
a(S'negotiations'
I28
tp2349
a(S'factor'
I28
tp2350
a(S'richmond'
I28
tp2351
a(S'hrs'
I28
tp2352
a(S'brad'
I28
tp2353
a(S'xl'
I28
tp2354
a(S'cannon'
I28
tp2355
a(S'anticipates'
I28
tp2356
a(S'brokered'
I28
tp2357
a(S'adult'
I28
tp2358
a(S'max'
I28
tp2359
a(S'gateway'
I28
tp2360
a(S'controls'
I28
tp2361
a(S'enhanced'
I28
tp2362
a(S'sofftwaares'
I28
tp2363
a(S'julia'
I28
tp2364
a(S'hospital'
I28
tp2365
a(S'ffffff'
I28
tp2366
a(S'releases'
I28
tp2367
a(S'college'
I28
tp2368
a(S'holdings'
I28
tp2369
a(S'distribute'
I28
tp2370
a(S'driver'
I28
tp2371
a(S'imceanotes'
I28
tp2372
a(S'sarco'
I28
tp2373
a(S'garrick'
I28
tp2374
a(S'craig'
I28
tp2375
a(S'mcloughlin'
I28
tp2376
a(S'easily'
I28
tp2377
a(S'treated'
I28
tp2378
a(S'itself'
I28
tp2379
a(S'trochta'
I28
tp2380
a(S'conversion'
I28
tp2381
a(S'worksheet'
I28
tp2382
a(S'sheri'
I28
tp2383
a(S'locker'
I27
tp2384
a(S'drilling'
I27
tp2385
a(S'entering'
I27
tp2386
a(S'caused'
I27
tp2387
a(S'bretz'
I27
tp2388
a(S'baby'
I27
tp2389
a(S'maximum'
I27
tp2390
a(S'anytime'
I27
tp2391
a(S'wiil'
I27
tp2392
a(S'sample'
I27
tp2393
a(S'expensive'
I27
tp2394
a(S'cherry'
I27
tp2395
a(S'larger'
I27
tp2396
a(S'silver'
I27
tp2397
a(S'dealer'
I27
tp2398
a(S'thinks'
I27
tp2399
a(S'owned'
I27
tp2400
a(S'function'
I27
tp2401
a(S'adding'
I27
tp2402
a(S'requires'
I27
tp2403
a(S'providers'
I27
tp2404
a(S'dawn'
I27
tp2405
a(S'martinez'
I27
tp2406
a(S'ls'
I27
tp2407
a(S'announces'
I27
tp2408
a(S'hundreds'
I27
tp2409
a(S'provider'
I27
tp2410
a(S'pa'
I27
tp2411
a(S'easier'
I27
tp2412
a(S'login'
I27
tp2413
a(S'carbide'
I27
tp2414
a(S'reliance'
I27
tp2415
a(S'beach'
I27
tp2416
a(S'offshore'
I27
tp2417
a(S'louis'
I27
tp2418
a(S'aim'
I27
tp2419
a(S'war'
I27
tp2420
a(S'forever'
I27
tp2421
a(S'variance'
I27
tp2422
a(S'happened'
I27
tp2423
a(S'nommensen'
I27
tp2424
a(S'triple'
I27
tp2425
a(S'gathered'
I27
tp2426
a(S'partnership'
I27
tp2427
a(S'writeoff'
I27
tp2428
a(S'dulce'
I27
tp2429
a(S'coordinate'
I27
tp2430
a(S'otcbb'
I27
tp2431
a(S'todd'
I27
tp2432
a(S'addresses'
I27
tp2433
a(S'thoughts'
I27
tp2434
a(S'mining'
I27
tp2435
a(S'advanced'
I27
tp2436
a(S'season'
I27
tp2437
a(S'agua'
I27
tp2438
a(S'extension'
I27
tp2439
a(S'pending'
I27
tp2440
a(S'exact'
I26
tp2441
a(S'turned'
I26
tp2442
a(S'confidence'
I26
tp2443
a(S'protection'
I26
tp2444
a(S'coffey'
I26
tp2445
a(S'electronic'
I26
tp2446
a(S'franklin'
I26
tp2447
a(S'appreciated'
I26
tp2448
a(S'illustrator'
I26
tp2449
a(S'safety'
I26
tp2450
a(S'buddy'
I26
tp2451
a(S'amazing'
I26
tp2452
a(S'okay'
I26
tp2453
a(S'africa'
I26
tp2454
a(S'mailbox'
I26
tp2455
a(S'oem'
I26
tp2456
a(S'ehronline'
I26
tp2457
a(S'invoiced'
I26
tp2458
a(S'flag'
I26
tp2459
a(S'nick'
I26
tp2460
a(S'nice'
I26
tp2461
a(S'romeo'
I26
tp2462
a(S'opinions'
I26
tp2463
a(S'sender'
I26
tp2464
a(S'keeping'
I26
tp2465
a(S'heads'
I26
tp2466
a(S'determined'
I26
tp2467
a(S'bar'
I26
tp2468
a(S'count'
I26
tp2469
a(S'jerry'
I26
tp2470
a(S'mails'
I26
tp2471
a(S'glad'
I26
tp2472
a(S'court'
I26
tp2473
a(S'forwarding'
I26
tp2474
a(S'touch'
I26
tp2475
a(S'hesitate'
I26
tp2476
a(S'noticed'
I26
tp2477
a(S'urbanek'
I26
tp2478
a(S'ii'
I26
tp2479
a(S'venture'
I26
tp2480
a(S'remote'
I26
tp2481
a(S'blood'
I26
tp2482
a(S'technoiogies'
I26
tp2483
a(S'brennan'
I26
tp2484
a(S'compressor'
I26
tp2485
a(S'reasons'
I26
tp2486
a(S'loading'
I26
tp2487
a(S'marlin'
I26
tp2488
a(S'payback'
I26
tp2489
a(S'oba'
I26
tp2490
a(S'upgrade'
I26
tp2491
a(S'handled'
I26
tp2492
a(S'procedures'
I26
tp2493
a(S'processed'
I26
tp2494
a(S'seem'
I26
tp2495
a(S'und'
I26
tp2496
a(S'responsibility'
I26
tp2497
a(S'doctors'
I26
tp2498
a(S'networks'
I26
tp2499
a(S'darron'
I26
tp2500
a(S'heather'
I26
tp2501
a(S'shipment'
I26
tp2502
a(S'finding'
I26
tp2503
a(S'creating'
I26
tp2504
a(S'brought'
I26
tp2505
a(S'att'
I26
tp2506
a(S'nascar'
I26
tp2507
a(S'tier'
I26
tp2508
a(S'btu'
I26
tp2509
a(S'abdv'
I26
tp2510
a(S'deadline'
I26
tp2511
a(S'egm'
I26
tp2512
a(S'block'
I26
tp2513
a(S'cell'
I26
tp2514
a(S'connected'
I26
tp2515
a(S'utility'
I26
tp2516
a(S'portion'
I26
tp2517
a(S'profiles'
I26
tp2518
a(S'couid'
I26
tp2519
a(S'executed'
I26
tp2520
a(S'passed'
I26
tp2521
a(S'barrett'
I26
tp2522
a(S'installed'
I25
tp2523
a(S'vol'
I25
tp2524
a(S'develop'
I25
tp2525
a(S'url'
I25
tp2526
a(S'smoking'
I25
tp2527
a(S'round'
I25
tp2528
a(S'miles'
I25
tp2529
a(S'shareholders'
I25
tp2530
a(S'anyway'
I25
tp2531
a(S'platform'
I25
tp2532
a(S'wind'
I25
tp2533
a(S'causing'
I25
tp2534
a(S'pico'
I25
tp2535
a(S'iso'
I25
tp2536
a(S'consent'
I25
tp2537
a(S'et'
I25
tp2538
a(S'correction'
I25
tp2539
a(S'owns'
I25
tp2540
a(S'erections'
I25
tp2541
a(S'videos'
I25
tp2542
a(S'moment'
I25
tp2543
a(S'ref'
I25
tp2544
a(S'frank'
I25
tp2545
a(S'discrepancies'
I25
tp2546
a(S'ma'
I25
tp2547
a(S'tessie'
I25
tp2548
a(S'communicate'
I25
tp2549
a(S'dewpoint'
I25
tp2550
a(S'owners'
I25
tp2551
a(S'inches'
I25
tp2552
a(S'un'
I25
tp2553
a(S'experiencing'
I25
tp2554
a(S'exciting'
I25
tp2555
a(S'collection'
I25
tp2556
a(S'spain'
I25
tp2557
a(S'bane'
I25
tp2558
a(S'supported'
I25
tp2559
a(S'ya'
I25
tp2560
a(S'valuable'
I25
tp2561
a(S'confidentiality'
I25
tp2562
a(S'processes'
I25
tp2563
a(S'capture'
I25
tp2564
a(S'eat'
I25
tp2565
a(S'mine'
I25
tp2566
a(S'mai'
I25
tp2567
a(S'association'
I25
tp2568
a(S'extremely'
I25
tp2569
a(S'biggest'
I25
tp2570
a(S'cheapest'
I25
tp2571
a(S'hearing'
I25
tp2572
a(S'nathan'
I25
tp2573
a(S'goal'
I25
tp2574
a(S'busy'
I25
tp2575
a(S'improved'
I25
tp2576
a(S'familiar'
I25
tp2577
a(S'disclosure'
I25
tp2578
a(S'prohibited'
I25
tp2579
a(S'piece'
I25
tp2580
a(S'restricted'
I25
tp2581
a(S'die'
I25
tp2582
a(S'income'
I25
tp2583
a(S'shawna'
I25
tp2584
a(S'gore'
I25
tp2585
a(S'originally'
I24
tp2586
a(S'aggressive'
I24
tp2587
a(S'advertisement'
I24
tp2588
a(S'tracking'
I24
tp2589
a(S'books'
I24
tp2590
a(S'carriere'
I24
tp2591
a(S'moshou'
I24
tp2592
a(S'death'
I24
tp2593
a(S'lives'
I24
tp2594
a(S'seven'
I24
tp2595
a(S'zajac'
I24
tp2596
a(S'filled'
I24
tp2597
a(S'choate'
I24
tp2598
a(S'sound'
I24
tp2599
a(S'organizational'
I24
tp2600
a(S'smart'
I24
tp2601
a(S'hair'
I24
tp2602
a(S'rental'
I24
tp2603
a(S'picture'
I24
tp2604
a(S'story'
I24
tp2605
a(S'accurate'
I24
tp2606
a(S'consemiu'
I24
tp2607
a(S'hence'
I24
tp2608
a(S'steps'
I24
tp2609
a(S'imited'
I24
tp2610
a(S'anti'
I24
tp2611
a(S'ac'
I24
tp2612
a(S'earnings'
I24
tp2613
a(S'blvd'
I24
tp2614
a(S'ct'
I24
tp2615
a(S'tape'
I24
tp2616
a(S'space'
I24
tp2617
a(S'fl'
I24
tp2618
a(S'agenda'
I24
tp2619
a(S'isc'
I24
tp2620
a(S'seneca'
I24
tp2621
a(S'died'
I24
tp2622
a(S'offered'
I24
tp2623
a(S'participants'
I24
tp2624
a(S'spent'
I24
tp2625
a(S'peggy'
I24
tp2626
a(S'industries'
I24
tp2627
a(S'majeure'
I24
tp2628
a(S'improve'
I24
tp2629
a(S'medium'
I24
tp2630
a(S'ten'
I24
tp2631
a(S'randall'
I24
tp2632
a(S'proprietary'
I24
tp2633
a(S'european'
I24
tp2634
a(S'church'
I24
tp2635
a(S'cia'
I24
tp2636
a(S'ut'
I24
tp2637
a(S'expressed'
I24
tp2638
a(S'bussell'
I24
tp2639
a(S'implementation'
I24
tp2640
a(S'ail'
I24
tp2641
a(S'pubiisher'
I24
tp2642
a(S'messaging'
I24
tp2643
a(S'wil'
I24
tp2644
a(S'consumer'
I24
tp2645
a(S'eyes'
I24
tp2646
a(S'sutton'
I24
tp2647
a(S'arial'
I24
tp2648
a(S'gay'
I24
tp2649
a(S'gap'
I24
tp2650
a(S'prescriptions'
I24
tp2651
a(S'gives'
I24
tp2652
a(S'richardson'
I24
tp2653
a(S'ownership'
I24
tp2654
a(S'massive'
I24
tp2655
a(S'male'
I24
tp2656
a(S'reminder'
I24
tp2657
a(S'concerned'
I24
tp2658
a(S'continues'
I24
tp2659
a(S'delivering'
I24
tp2660
a(S'duplicate'
I24
tp2661
a(S'device'
I24
tp2662
a(S'wire'
I24
tp2663
a(S'glo'
I24
tp2664
a(S'trouble'
I24
tp2665
a(S'earthlink'
I24
tp2666
a(S'florida'
I24
tp2667
a(S'emerging'
I24
tp2668
a(S'began'
I24
tp2669
a(S'campaign'
I24
tp2670
a(S'requesting'
I24
tp2671
a(S'trades'
I24
tp2672
a(S'published'
I24
tp2673
a(S'eliminate'
I24
tp2674
a(S'copied'
I24
tp2675
a(S'diane'
I24
tp2676
a(S'mortgage'
I24
tp2677
a(S'ways'
I24
tp2678
a(S'agreements'
I24
tp2679
a(S'bringing'
I23
tp2680
a(S'rich'
I23
tp2681
a(S'indicative'
I23
tp2682
a(S'length'
I23
tp2683
a(S'places'
I23
tp2684
a(S'cooperation'
I23
tp2685
a(S'client'
I23
tp2686
a(S'regardless'
I23
tp2687
a(S'marshall'
I23
tp2688
a(S'default'
I23
tp2689
a(S'suggested'
I23
tp2690
a(S'stores'
I23
tp2691
a(S'hopefully'
I23
tp2692
a(S'spacer'
I23
tp2693
a(S'pleasure'
I23
tp2694
a(S'leaving'
I23
tp2695
a(S'possibly'
I23
tp2696
a(S'session'
I23
tp2697
a(S'expiration'
I23
tp2698
a(S'variety'
I23
tp2699
a(S'palestinian'
I23
tp2700
a(S'kyle'
I23
tp2701
a(S'ea'
I23
tp2702
a(S'desktop'
I23
tp2703
a(S'salary'
I23
tp2704
a(S'uses'
I23
tp2705
a(S'focused'
I23
tp2706
a(S'gepl'
I23
tp2707
a(S'alpine'
I23
tp2708
a(S'buckley'
I23
tp2709
a(S'hydrocarbon'
I23
tp2710
a(S'compare'
I23
tp2711
a(S'winners'
I23
tp2712
a(S'leaders'
I23
tp2713
a(S'auction'
I23
tp2714
a(S'mi'
I23
tp2715
a(S'connect'
I23
tp2716
a(S'presentation'
I23
tp2717
a(S'recommended'
I23
tp2718
a(S'planned'
I23
tp2719
a(S'allowed'
I23
tp2720
a(S'sp'
I23
tp2721
a(S'square'
I23
tp2722
a(S'dating'
I23
tp2723
a(S'hansen'
I23
tp2724
a(S'applicable'
I23
tp2725
a(S'reduced'
I23
tp2726
a(S'amended'
I23
tp2727
a(S'highest'
I23
tp2728
a(S'sabrae'
I23
tp2729
a(S'pvr'
I23
tp2730
a(S'stranger'
I23
tp2731
a(S'wayne'
I23
tp2732
a(S'loan'
I23
tp2733
a(S'chase'
I23
tp2734
a(S'human'
I23
tp2735
a(S'speak'
I23
tp2736
a(S'bowen'
I23
tp2737
a(S'overall'
I23
tp2738
a(S'signed'
I23
tp2739
a(S'po'
I23
tp2740
a(S'penny'
I23
tp2741
a(S'canadian'
I23
tp2742
a(S'living'
I23
tp2743
a(S'raise'
I23
tp2744
a(S'contacts'
I23
tp2745
a(S'impotence'
I23
tp2746
a(S'darrel'
I23
tp2747
a(S'royalty'
I23
tp2748
a(S'sleep'
I23
tp2749
a(S'danny'
I23
tp2750
a(S'netherlands'
I23
tp2751
a(S'players'
I23
tp2752
a(S'tie'
I23
tp2753
a(S'suzanne'
I23
tp2754
a(S'motor'
I23
tp2755
a(S'serial'
I23
tp2756
a(S'premiere'
I23
tp2757
a(S'effects'
I22
tp2758
a(S'audit'
I22
tp2759
a(S'tglo'
I22
tp2760
a(S'amounts'
I22
tp2761
a(S'ryan'
I22
tp2762
a(S'fare'
I22
tp2763
a(S'attachments'
I22
tp2764
a(S'achieve'
I22
tp2765
a(S'hess'
I22
tp2766
a(S'lunch'
I22
tp2767
a(S'merger'
I22
tp2768
a(S'filter'
I22
tp2769
a(S'sometime'
I22
tp2770
a(S'leth'
I22
tp2771
a(S'brief'
I22
tp2772
a(S'rally'
I22
tp2773
a(S'explore'
I22
tp2774
a(S'difficult'
I22
tp2775
a(S'increasing'
I22
tp2776
a(S'republic'
I22
tp2777
a(S'troy'
I22
tp2778
a(S'relating'
I22
tp2779
a(S'migration'
I22
tp2780
a(S'community'
I22
tp2781
a(S'reid'
I22
tp2782
a(S'forth'
I22
tp2783
a(S'greatly'
I22
tp2784
a(S'answers'
I22
tp2785
a(S'ecf'
I22
tp2786
a(S'therein'
I22
tp2787
a(S'growing'
I22
tp2788
a(S'till'
I22
tp2789
a(S'sooner'
I22
tp2790
a(S'der'
I22
tp2791
a(S'cents'
I22
tp2792
a(S'examples'
I22
tp2793
a(S'le'
I22
tp2794
a(S'ml'
I22
tp2795
a(S'gov'
I22
tp2796
a(S'christmas'
I22
tp2797
a(S'undervalued'
I22
tp2798
a(S'hlavaty'
I22
tp2799
a(S'joanne'
I22
tp2800
a(S'types'
I22
tp2801
a(S'series'
I22
tp2802
a(S'shipper'
I22
tp2803
a(S'returned'
I22
tp2804
a(S'ur'
I22
tp2805
a(S'delay'
I22
tp2806
a(S'experienced'
I22
tp2807
a(S'lasts'
I22
tp2808
a(S'attempt'
I22
tp2809
a(S'kin'
I22
tp2810
a(S'luis'
I22
tp2811
a(S'muscle'
I22
tp2812
a(S'procedure'
I22
tp2813
a(S'eogi'
I22
tp2814
a(S'lls'
I22
tp2815
a(S'pop'
I22
tp2816
a(S'pond'
I22
tp2817
a(S'souza'
I22
tp2818
a(S'approve'
I22
tp2819
a(S'obtain'
I22
tp2820
a(S'prime'
I22
tp2821
a(S'nelson'
I22
tp2822
a(S'begins'
I22
tp2823
a(S'interface'
I22
tp2824
a(S'servers'
I22
tp2825
a(S'cove'
I22
tp2826
a(S'esther'
I22
tp2827
a(S'las'
I22
tp2828
a(S'filing'
I22
tp2829
a(S'fletcher'
I22
tp2830
a(S'engel'
I22
tp2831
a(S'metals'
I22
tp2832
a(S'carter'
I22
tp2833
a(S'starts'
I22
tp2834
a(S'amelia'
I22
tp2835
a(S'wysak'
I22
tp2836
a(S'percentage'
I22
tp2837
a(S'comfort'
I22
tp2838
a(S'caribbean'
I22
tp2839
a(S'edge'
I22
tp2840
a(S'palmer'
I22
tp2841
a(S'covered'
I22
tp2842
a(S'errors'
I21
tp2843
a(S'saying'
I21
tp2844
a(S'objective'
I21
tp2845
a(S'boost'
I21
tp2846
a(S'enronavailso'
I21
tp2847
a(S'incremental'
I21
tp2848
a(S'defs'
I21
tp2849
a(S'watches'
I21
tp2850
a(S'sans'
I21
tp2851
a(S'willing'
I21
tp2852
a(S'audio'
I21
tp2853
a(S'gloria'
I21
tp2854
a(S'padre'
I21
tp2855
a(S'convenient'
I21
tp2856
a(S'reserve'
I21
tp2857
a(S'excite'
I21
tp2858
a(S'macintosh'
I21
tp2859
a(S'corel'
I21
tp2860
a(S'decide'
I21
tp2861
a(S'bass'
I21
tp2862
a(S'economic'
I21
tp2863
a(S'ordered'
I21
tp2864
a(S'testing'
I21
tp2865
a(S'thorough'
I21
tp2866
a(S'porn'
I21
tp2867
a(S'cards'
I21
tp2868
a(S'newsietter'
I21
tp2869
a(S'lets'
I21
tp2870
a(S'milwaukee'
I21
tp2871
a(S'flight'
I21
tp2872
a(S'superior'
I21
tp2873
a(S'disclose'
I21
tp2874
a(S'priority'
I21
tp2875
a(S'vary'
I21
tp2876
a(S'cousino'
I21
tp2877
a(S'driscoll'
I21
tp2878
a(S'armstrong'
I21
tp2879
a(S'doubt'
I21
tp2880
a(S'drill'
I21
tp2881
a(S'towards'
I21
tp2882
a(S'worldnet'
I21
tp2883
a(S'affect'
I21
tp2884
a(S'ooo'
I21
tp2885
a(S'tue'
I21
tp2886
a(S'cancel'
I21
tp2887
a(S'kathy'
I21
tp2888
a(S'beemer'
I21
tp2889
a(S'curve'
I21
tp2890
a(S'contacting'
I21
tp2891
a(S'awesome'
I21
tp2892
a(S'constitutes'
I21
tp2893
a(S'refer'
I21
tp2894
a(S'tm'
I21
tp2895
a(S'formosa'
I21
tp2896
a(S'straight'
I21
tp2897
a(S'technical'
I21
tp2898
a(S'buttons'
I21
tp2899
a(S'kerr'
I21
tp2900
a(S'heavy'
I21
tp2901
a(S'officers'
I21
tp2902
a(S'minimal'
I21
tp2903
a(S'visual'
I21
tp2904
a(S'whose'
I21
tp2905
a(S'ward'
I21
tp2906
a(S'sounds'
I21
tp2907
a(S'shot'
I21
tp2908
a(S'encoding'
I21
tp2909
a(S'computers'
I21
tp2910
a(S'distributed'
I21
tp2911
a(S'authority'
I21
tp2912
a(S'approach'
I21
tp2913
a(S'portal'
I21
tp2914
a(S'mother'
I21
tp2915
a(S'returns'
I21
tp2916
a(S'unfortunately'
I21
tp2917
a(S'satisfaction'
I21
tp2918
a(S'knows'
I21
tp2919
a(S'feet'
I21
tp2920
a(S'sir'
I21
tp2921
a(S'fire'
I21
tp2922
a(S'prefer'
I21
tp2923
a(S'formula'
I21
tp2924
a(S'quite'
I21
tp2925
a(S'phillip'
I21
tp2926
a(S'phones'
I21
tp2927
a(S'learning'
I21
tp2928
a(S'aren'
I21
tp2929
a(S'nigeria'
I21
tp2930
a(S'fda'
I21
tp2931
a(S'alland'
I21
tp2932
a(S'felipe'
I21
tp2933
a(S'flw'
I21
tp2934
a(S'forecast'
I21
tp2935
a(S'traded'
I21
tp2936
a(S'forget'
I21
tp2937
a(S'staffing'
I21
tp2938
a(S'permanent'
I21
tp2939
a(S'explosion'
I21
tp2940
a(S'unlimited'
I21
tp2941
a(S'redelivery'
I21
tp2942
a(S'wild'
I21
tp2943
a(S'patch'
I20
tp2944
a(S'jay'
I20
tp2945
a(S'ellenberger'
I20
tp2946
a(S'transferred'
I20
tp2947
a(S'camera'
I20
tp2948
a(S'tennessee'
I20
tp2949
a(S'prizes'
I20
tp2950
a(S'patience'
I20
tp2951
a(S'election'
I20
tp2952
a(S'faster'
I20
tp2953
a(S'clarification'
I20
tp2954
a(S'directors'
I20
tp2955
a(S'decisions'
I20
tp2956
a(S'theresa'
I20
tp2957
a(S'collect'
I20
tp2958
a(S'allowing'
I20
tp2959
a(S'degree'
I20
tp2960
a(S'fear'
I20
tp2961
a(S'catch'
I20
tp2962
a(S'miller'
I20
tp2963
a(S'military'
I20
tp2964
a(S'smi'
I20
tp2965
a(S'dorcheus'
I20
tp2966
a(S'valued'
I20
tp2967
a(S'winter'
I20
tp2968
a(S'antivirus'
I20
tp2969
a(S'missed'
I20
tp2970
a(S'relationship'
I20
tp2971
a(S'specifically'
I20
tp2972
a(S'firms'
I20
tp2973
a(S'angeles'
I20
tp2974
a(S'manner'
I20
tp2975
a(S'fight'
I20
tp2976
a(S'trial'
I20
tp2977
a(S'ff'
I20
tp2978
a(S'gt'
I20
tp2979
a(S'neither'
I20
tp2980
a(S'fields'
I20
tp2981
a(S'formerly'
I20
tp2982
a(S'fall'
I20
tp2983
a(S'direction'
I20
tp2984
a(S'del'
I20
tp2985
a(S'twenty'
I20
tp2986
a(S'matters'
I20
tp2987
a(S'hate'
I20
tp2988
a(S'lozano'
I20
tp2989
a(S'protect'
I20
tp2990
a(S'greatest'
I20
tp2991
a(S'nt'
I20
tp2992
a(S'millions'
I20
tp2993
a(S'announcement'
I20
tp2994
a(S'insurance'
I20
tp2995
a(S'bigger'
I20
tp2996
a(S'batch'
I20
tp2997
a(S'spur'
I20
tp2998
a(S'ended'
I20
tp2999
a(S'capabilities'
I20
tp3000
a(S'cokinos'
I20
tp3001
a.