(lp0
(S'the'
p1
I22003
tp2
a(S'to'
p3
I16118
tp4
a(S'ect'
p5
I11643
tp6
a(S'and'
p7
I11337
tp8
a(S'for'
p9
I9430
tp10
a(S'of'
p11
I9382
tp12
a(S'a'
p13
I8815
tp14
a(S'you'
p15
I7289
tp16
a(S'hou'
p17
I7283
tp18
a(S'in'
p19
I6885
tp20
a(S'on'
p21
I6723
tp22
a(S'is'
p23
I6664
tp24
a(S'this'
p25
I5895
tp26
a(S'enron'
p27
I5282
tp28
a(S'i'
p29
I4748
tp30
a(S'be'
p31
I4623
tp32
a(S'that'
p33
I4267
tp34
a(S'will'
p35
I3783
tp36
a(S'have'
p37
I3746
tp38
a(S'with'
p39
I3570
tp40
a(S'your'
p41
I3506
tp42
a(S'at'
p43
I3371
tp44
a(S'we'
p45
I3349
tp46
a(S's'
p47
I3219
tp48
a(S'are'
p49
I3045
tp50
a(S'it'
p51
I2942
tp52
a(S'by'
p53
I2852
tp54
a(S'com'
p55
I2802
tp56
a(S'as'
p57
I2793
tp58
a(S'from'
p59
I2783
tp60
a(S'gas'
p61
I2756
tp62
a(S'or'
p63
I2723
tp64
a(S'not'
p65
I2653
tp66
a(S'me'
p67
I2416
tp68
a(S'deal'
p69
I2381
tp70
a(S'if'
p71
I2359
tp72
a(S'meter'
p73
I2179
tp74
a(S'hpl'
p75
I2116
tp76
a(S'please'
p77
I1959
tp78
a(S're'
p79
I1954
tp80
a(S'e'
p81
I1774
tp82
a(S'any'
p83
I1766
tp84
a(S'our'
p85
I1765
tp86
a(S'corp'
p87
I1753
tp88
a(S'can'
p89
I1717
tp90
a(S'd'
p91
I1699
tp92
a(S'all'
p93
I1594
tp94
a(S'has'
p95
I1562
tp96
a(S'was'
p97
I1538
tp98
a(S'know'
p99
I1465
tp100
a(S'an'
p101
I1357
tp102
a(S'need'
p103
I1357
tp104
a(S'forwarded'
p105
I1292
tp106
a(S'new'
p107
I1291
tp108
a(S't'
p109
I1288
tp110
a(S'may'
p111
I1273
tp112
a(S'up'
p113
I1251
tp114
a(S'j'
p115
I1239
tp116
a(S'mmbtu'
p117
I1193
tp118
a(S'do'
p119
I1157
tp120
a(S'should'
p121
I1157
tp122
a(S'am'
p123
I1103
tp124
a(S'get'
p125
I1090
tp126
a(S'out'
p127
I1077
tp128
a(S'see'
p129
I1075
tp130
a(S'no'
p131
I1060
tp132
a(S'there'
p133
I1049
tp134
a(S'price'
p135
I1036
tp136
a(S'daren'
p137
I1024
tp138
a(S'but'
p139
I1000
tp140
a(S'been'
p141
I992
tp142
a(S'company'
p143
I970
tp144
a(S'l'
p145
I961
tp146
a(S'these'
p147
I960
tp148
a(S'let'
p149
I956
tp150
a(S'so'
p151
I942
tp152
a(S'would'
p153
I941
tp154
a(S'm'
p155
I929
tp156
a(S'into'
p157
I915
tp158
a(S'xls'
p159
I915
tp160
a(S'farmer'
p161
I911
tp162
a(S'attached'
p163
I905
tp164
a(S'information'
p165
I896
tp166
a(S'us'
p167
I896
tp168
a(S'they'
p169
I895
tp170
a(S'message'
p171
I886
tp172
a(S'day'
p173
I883
tp174
a(S'time'
p175
I878
tp176
a(S'my'
p177
I848
tp178
a(S'one'
p179
I844
tp180
a(S'what'
p181
I829
tp182
a(S'only'
p183
I822
tp184
a(S'http'
p185
I807
tp186
a(S'th'
p187
I800
tp188
a(S'volume'
p189
I787
tp190
a(S'mail'
p191
I774
tp192
a(S'contract'
p193
I770
tp194
a(S'which'
p195
I755
tp196
a(S'month'
p197
I754
tp198
a(S'more'
p199
I747
tp200
a(S'robert'
p201
I737
tp202
a(S'sitara'
p203
I735
tp204
a(S'about'
p205
I730
tp206
a(S'texas'
p207
I729
tp208
a(S'nom'
p209
I724
tp210
a(S'energy'
p211
I718
tp212
a(S'pec'
p213
I709
tp214
a(S'questions'
p215
I705
tp216
a(S'www'
p217
I690
tp218
a(S'deals'
p219
I689
tp220
a(S'volumes'
p221
I683
tp222
a(S'pm'
p223
I677
tp224
a(S'ena'
p225
I674
tp226
a(S'now'
p227
I669
tp228
a(S'their'
p229
I666
tp230
a(S'file'
p231
I655
tp232
a(S'some'
p233
I634
tp234
a(S'email'
p235
I624
tp236
a(S'just'
p237
I618
tp238
a(S'also'
p239
I617
tp240
a(S'call'
p241
I616
tp242
a(S'change'
p243
I613
tp244
a(S'other'
p245
I606
tp246
a(S'here'
p247
I598
tp248
a(S'like'
p249
I593
tp250
a(S'b'
p251
I589
tp252
a(S'flow'
p253
I585
tp254
a(S'net'
p255
I584
tp256
a(S'following'
p257
I569
tp258
a(S'p'
p259
I566
tp260
a(S'production'
p261
I559
tp262
a(S'when'
p263
I553
tp264
a(S'over'
p265
I552
tp266
a(S'back'
p267
I541
tp268
a(S'want'
p269
I534
tp270
a(S'original'
p271
I533
tp272
a(S'them'
p273
I520
tp274
a(S'below'
p275
I513
tp276
a(S'o'
p277
I510
tp278
a(S'ticket'
p279
I509
tp280
a(S'c'
p281
I509
tp282
a(S'he'
p283
I505
tp284
a(S'could'
p285
I502
tp286
a(S'make'
p287
I497
tp288
a(S'inc'
p289
I493
tp290
a(S'report'
p291
I492
tp292
a(S'march'
p293
I488
tp294
a(S'contact'
p295
I483
tp296
a(S'days'
p297
I480
tp298
a(S'were'
p299
I480
tp300
a(S'list'
p301
I476
tp302
a(S'nomination'
p303
I474
tp304
a(S'system'
p305
I474
tp306
a(S'who'
p307
I473
tp308
a(S'april'
p309
I473
tp310
a(S'number'
p311
I472
tp312
a(S'sale'
p313
I472
tp314
a(S'don'
p315
I464
tp316
a(S'its'
p317
I463
tp318
a(S'first'
p319
I459
tp320
a(S'thanks'
p321
I455
tp322
a(S'business'
p323
I455
tp324
a(S'help'
p325
I453
tp326
a(S'per'
p327
I448
tp328
a(S'through'
p329
I447
tp330
a(S'july'
p331
I446
tp332
a(S'forward'
p333
I444
tp334
a(S'font'
p335
I443
tp336
a(S'free'
p337
I442
tp338
a(S'daily'
p339
I440
tp340
a(S'order'
p341
I439
tp342
a(S'use'
p343
I439
tp344
a(S'today'
p345
I437
tp346
a(S'r'
p347
I435
tp348
a(S'had'
p349
I432
tp350
a(S'fw'
p351
I429
tp352
a(S'set'
p353
I423
tp354
a(S'plant'
p355
I420
tp356
a(S'statements'
p357
I419
tp358
a(S'go'
p359
I416
tp360
a(S'gary'
p361
I413
tp362
a(S'oil'
p363
I411
tp364
a(S'line'
p365
I408
tp366
a(S'sales'
p367
I402
tp368
a(S'w'
p369
I401
tp370
a(S'effective'
p371
I396
tp372
a(S'well'
p373
I393
tp374
a(S'tenaska'
p375
I390
tp376
a(S'take'
p377
I387
tp378
a(S'june'
p379
I380
tp380
a(S'x'
p381
I379
tp382
a(S'within'
p383
I378
tp384
a(S'nbsp'
p385
I377
tp386
a(S'she'
p387
I376
tp388
a(S'how'
p389
I375
tp390
a(S'north'
p391
I371
tp392
a(S'america'
p393
I370
tp394
a(S'being'
p395
I369
tp396
a(S'under'
p397
I365
tp398
a(S'next'
p399
I363
tp400
a(S'week'
p401
I362
tp402
a(S'than'
p403
I360
tp404
a(S'january'
p405
I359
tp406
a(S'service'
p407
I356
tp408
a(S'last'
p409
I356
tp410
a(S'two'
p411
I356
tp412
a(S'purchase'
p413
I354
tp414
a(S'name'
p415
I352
tp416
a(S'less'
p417
I348
tp418
a(S'height'
p419
I347
tp420
a(S'off'
p421
I345
tp422
a(S'agreement'
p423
I345
tp424
a(S'k'
p425
I344
tp426
a(S'work'
p427
I342
tp428
a(S'tap'
p429
I340
tp430
a(S'group'
p431
I339
tp432
a(S'year'
p433
I338
tp434
a(S'transport'
p435
I337
tp436
a(S'based'
p437
I337
tp438
a(S'after'
p439
I335
tp440
a(S'think'
p441
I334
tp442
a(S'available'
p443
I333
tp444
a(S'each'
p445
I333
tp446
a(S'made'
p447
I333
tp448
a(S'due'
p449
I328
tp450
a(S'changes'
p451
I328
tp452
a(S'f'
p453
I327
tp454
a(S'h'
p455
I326
tp456
a(S'services'
p457
I324
tp458
a(S'smith'
p459
I322
tp460
a(S'management'
p461
I321
tp462
a(S'send'
p463
I321
tp464
a(S'll'
p465
I319
tp466
a(S'sent'
p467
I319
tp468
a(S'stock'
p469
I319
tp470
a(S'co'
p471
I317
tp472
a(S'needs'
p473
I316
tp474
a(S'office'
p475
I316
tp476
a(S'cotten'
p477
I314
tp478
a(S'actuals'
p479
I313
tp480
a(S'u'
p481
I313
tp482
a(S'did'
p483
I313
tp484
a(S'before'
p485
I310
tp486
a(S'money'
p487
I310
tp488
a(S'looking'
p489
I308
tp490
a(S'then'
p491
I307
tp492
a(S'pills'
p493
I307
tp494
a(S'request'
p495
I305
tp496
a(S'look'
p497
I305
tp498
a(S'desk'
p499
I305
tp500
a(S'online'
p501
I305
tp502
a(S'ami'
p503
I304
tp504
a(S'same'
p505
I303
tp506
a(S'his'
p507
I303
tp508
a(S'george'
p509
I300
tp510
a(S'chokshi'
p511
I299
tp512
a(S'point'
p513
I298
tp514
a(S'delivery'
p515
I296
tp516
a(S'august'
p517
I294
tp518
a(S'friday'
p519
I294
tp520
a(S'size'
p521
I294
tp522
a(S'does'
p523
I294
tp524
a(S'product'
p525
I293
tp526
a(S'width'
p527
I292
tp528
a(S'pat'
p529
I292
tp530
a(S'iv'
p531
I289
tp532
a(S'address'
p533
I286
tp534
a(S'noms'
p535
I286
tp536
a(S'above'
p537
I285
tp538
a(S'sure'
p539
I284
tp540
a(S'give'
p541
I283
tp542
a(S'october'
p543
I283
tp544
a(S'future'
p545
I282
tp546
a(S'find'
p547
I282
tp548
a(S'market'
p549
I275
tp550
a(S'n'
p551
I274
tp552
a(S'mary'
p553
I273
tp554
a(S'vance'
p555
I272
tp556
a(S'internet'
p557
I269
tp558
a(S'melissa'
p559
I269
tp560
a(S'said'
p561
I269
tp562
a(S'still'
p563
I268
tp564
a(S'link'
p565
I267
tp566
a(S'those'
p567
I267
tp568
a(S'account'
p569
I267
tp570
a(S'down'
p571
I267
tp572
a(S'hsc'
p573
I266
tp574
a(S'rate'
p575
I265
tp576
a(S'pipeline'
p577
I264
tp578
a(S'people'
p579
I264
tp580
a(S'best'
p581
I263
tp582
a(S'actual'
p583
I262
tp584
a(S'home'
p585
I261
tp586
a(S'very'
p587
I261
tp588
a(S'end'
p589
I261
tp590
a(S'houston'
p591
I260
tp592
a(S'tu'
p593
I260
tp594
a(S'high'
p595
I259
tp596
a(S'team'
p597
I258
tp598
a(S'products'
p599
I258
tp600
a(S'her'
p601
I258
tp602
a(S'spot'
p603
I257
tp604
a(S'many'
p605
I257
tp606
a(S'currently'
p607
I257
tp608
a(S'such'
p609
I256
tp610
a(S'receive'
p611
I256
tp612
a(S'good'
p613
I256
tp614
a(S'process'
p615
I255
tp616
a(S'feb'
p617
I255
tp618
a(S'going'
p619
I255
tp620
a(S'info'
p621
I254
tp622
a(S'monday'
p623
I254
tp624
a(S'again'
p625
I253
tp626
a(S'david'
p627
I253
tp628
a(S'lloyd'
p629
I253
tp630
a(S'click'
p631
I253
tp632
a(S'subject'
p633
I253
tp634
a(S'both'
p635
I253
tp636
a(S'jackie'
p637
I252
tp638
a(S'december'
p639
I251
tp640
a(S'na'
p641
I251
tp642
a(S'total'
p643
I251
tp644
a(S'lisa'
p645
I250
tp646
a(S'september'
p647
I250
tp648
a(S've'
p649
I250
tp650
a(S'hours'
p651
I246
tp652
a(S'until'
p653
I246
tp654
a(S'resources'
p655
I245
tp656
a(S'aol'
p657
I245
tp658
a(S'because'
p659
I245
tp660
a(S'february'
p661
I244
tp662
a(S'where'
p663
I242
tp664
a(S'investment'
p665
I241
tp666
a(S'duke'
p667
I241
tp668
a(S'g'
p669
I241
tp670
a(S'issue'
p671
I241
tp672
a(S'since'
p673
I240
tp674
a(S'pay'
p675
I240
tp676
a(S'show'
p677
I239
tp678
a(S'computron'
p679
I238
tp680
a(S'global'
p681
I238
tp682
a(S'way'
p683
I238
tp684
a(S'eastrans'
p685
I237
tp686
a(S'activity'
p687
I237
tp688
a(S'natural'
p689
I237
tp690
a(S'most'
p691
I237
tp692
a(S'place'
p693
I237
tp694
a(S'offer'
p695
I237
tp696
a(S'further'
p697
I237
tp698
a(S'prices'
p699
I236
tp700
a(S'graves'
p701
I236
tp702
a(S'right'
p703
I236
tp704
a(S'john'
p705
I235
tp706
a(S'utilities'
p707
I235
tp708
a(S'date'
p709
I235
tp710
a(S'november'
p711
I234
tp712
a(S'clynes'
p713
I234
tp714
a(S'jan'
p715
I232
tp716
a(S'securities'
p717
I232
tp718
a(S'susan'
p719
I231
tp720
a(S'meeting'
p721
I231
tp722
a(S'hplc'
p723
I230
tp724
a(S'julie'
p725
I229
tp726
a(S'received'
p727
I229
tp728
a(S'able'
p729
I229
tp730
a(S'align'
p731
I227
tp732
a(S'term'
p733
I226
tp734
a(S'id'
p735
I224
tp736
a(S'revised'
p737
I223
tp738
a(S'pg'
p739
I223
tp740
a(S'thursday'
p741
I223
tp742
a(S'fee'
p743
I222
tp744
a(S'hplno'
p745
I222
tp746
a(S'trading'
p747
I221
tp748
a(S'additional'
p749
I219
tp750
a(S'txu'
p751
I219
tp752
a(S'site'
p753
I219
tp754
a(S'data'
p755
I218
tp756
a(S'wellhead'
p757
I218
tp758
a(S'reply'
p759
I218
tp760
a(S'news'
p761
I217
tp762
a(S'taylor'
p763
I217
tp764
a(S'michael'
p765
I216
tp766
a(S'unify'
p767
I216
tp768
a(S'much'
p769
I214
tp770
a(S'provide'
p771
I214
tp772
a(S'access'
p773
I214
tp774
a(S'note'
p775
I214
tp776
a(S'every'
p777
I213
tp778
a(S'lannou'
p779
I213
tp780
a(S'between'
p781
I212
tp782
a(S'tuesday'
p783
I211
tp784
a(S'keep'
p785
I211
tp786
a(S'review'
p787
I211
tp788
a(S'tom'
p789
I210
tp790
a(S'great'
p791
I210
tp792
a(S'put'
p793
I209
tp794
a(S'save'
p795
I208
tp796
a(S'long'
p797
I208
tp798
a(S'section'
p799
I208
tp800
a(S'done'
p801
I208
tp802
a(S'must'
p803
I207
tp804
a(S'million'
p805
I206
tp806
a(S'part'
p807
I206
tp808
a(S'nd'
p809
I206
tp810
a(S'v'
p811
I206
tp812
a(S'check'
p813
I206
tp814
a(S'trade'
p815
I205
tp816
a(S'bob'
p817
I204
tp818
a(S'created'
p819
I204
tp820
a(S'steve'
p821
I203
tp822
a(S'prior'
p823
I202
tp824
a(S'copy'
p825
I202
tp826
a(S'numbers'
p827
I201
tp828
a(S'continue'
p829
I201
tp830
a(S'world'
p831
I200
tp832
a(S'hanks'
p833
I200
tp834
a(S'demand'
p835
I200
tp836
a(S'via'
p837
I200
tp838
a(S'customer'
p839
I199
tp840
a(S'transaction'
p841
I199
tp842
a(S'contracts'
p843
I199
tp844
a(S'phone'
p845
I199
tp846
a(S'possible'
p847
I198
tp848
a(S'pefs'
p849
I198
tp850
a(S'special'
p851
I197
tp852
a(S'without'
p853
I197
tp854
a(S'meyers'
p855
I197
tp856
a(S'used'
p857
I197
tp858
a(S'software'
p859
I197
tp860
a(S'regarding'
p861
I197
tp862
a(S'months'
p863
I197
tp864
a(S'buy'
p865
I196
tp866
a(S'support'
p867
I196
tp868
a(S'howard'
p869
I196
tp870
a(S'cec'
p871
I195
tp872
a(S'thru'
p873
I195
tp874
a(S'meters'
p875
I195
tp876
a(S'young'
p877
I195
tp878
a(S'gcs'
p879
I195
tp880
a(S'believe'
p881
I195
tp882
a(S'entered'
p883
I194
tp884
a(S'control'
p885
I194
tp886
a(S'dec'
p887
I193
tp888
a(S'face'
p889
I193
tp890
a(S'create'
p891
I192
tp892
a(S'weissman'
p893
I191
tp894
a(S'st'
p895
I191
tp896
a(S'hplo'
p897
I190
tp898
a(S'supply'
p899
I190
tp900
a(S'brian'
p901
I190
tp902
a(S'color'
p903
I190
tp904
a(S'come'
p905
I190
tp906
a(S'customers'
p907
I188
tp908
a(S'own'
p909
I188
tp910
a(S'correct'
p911
I188
tp912
a(S'web'
p913
I187
tp914
a(S'allocation'
p915
I187
tp916
a(S'development'
p917
I186
tp918
a(S'using'
p919
I186
tp920
a(S'soon'
p921
I186
tp922
a(S'low'
p923
I185
tp924
a(S'power'
p925
I185
tp926
a(S'mark'
p927
I185
tp928
a(S'problem'
p929
I182
tp930
a(S'however'
p931
I182
tp932
a(S'once'
p933
I182
tp934
a(S'tickets'
p935
I182
tp936
a(S'performance'
p937
I181
tp938
a(S'border'
p939
I181
tp940
a(S'manager'
p941
I180
tp942
a(S'rates'
p943
I179
tp944
a(S'center'
p945
I178
tp946
a(S'companies'
p947
I177
tp948
a(S'risk'
p949
I177
tp950
a(S'details'
p951
I176
tp952
a(S'needed'
p953
I175
tp954
a(S'international'
p955
I175
tp956
a(S'field'
p957
I175
tp958
a(S'even'
p959
I175
tp960
a(S'fuel'
p961
I174
tp962
a(S'lee'
p963
I174
tp964
a(S'paid'
p965
I174
tp966
a(S'someone'
p967
I174
tp968
a(S'doc'
p969
I174
tp970
a(S'start'
p971
I173
tp972
a(S'index'
p973
I173
tp974
a(S'while'
p975
I173
tp976
a(S'include'
p977
I172
tp978
a(S'act'
p979
I171
tp980
a(S'pricing'
p981
I171
tp982
a(S'nominations'
p983
I171
tp984
a(S'href'
p985
I170
tp986
a(S'type'
p987
I170
tp988
a(S'gathering'
p989
I170
tp990
a(S'scheduled'
p991
I170
tp992
a(S'during'
p993
I169
tp994
a(S'anything'
p995
I168
tp996
a(S'aimee'
p997
I168
tp998
a(S'fuels'
p999
I167
tp1000
a(S'feel'
p1001
I167
tp1002
a(S'getting'
p1003
I167
tp1004
a(S'why'
p1005
I166
tp1006
a(S'advice'
p1007
I166
tp1008
a(S'sell'
p1009
I165
tp1010
a(S'path'
p1011
I165
tp1012
a(S'increase'
p1013
I165
tp1014
a(S'works'
p1015
I164
tp1016
a(S'issues'
p1017
I164
tp1018
a(S'enronxgate'
p1019
I164
tp1020
a(S'three'
p1021
I164
tp1022
a(S'camp'
p1023
I163
tp1024
a(S'financial'
p1025
I162
tp1026
a(S'security'
p1027
I162
tp1028
a(S'form'
p1029
I162
tp1030
a(S'interest'
p1031
I162
tp1032
a(S'either'
p1033
I162
tp1034
a(S'plan'
p1035
I161
tp1036
a(S'xp'
p1037
I161
tp1038
a(S'family'
p1039
I161
tp1040
a(S'another'
p1041
I160
tp1042
a(S'current'
p1043
I160
tp1044
a(S'src'
p1045
I160
tp1046
a(S'top'
p1047
I160
tp1048
a(S'spreadsheet'
p1049
I160
tp1050
a(S'wednesday'
p1051
I159
tp1052
a(S'working'
p1053
I159
tp1054
a(S'read'
p1055
I159
tp1056
a(S'allen'
p1057
I159
tp1058
a(S'wynne'
p1059
I159
tp1060
a(S'him'
p1061
I159
tp1062
a(S'buyback'
p1063
I158
tp1064
a(S'deliveries'
p1065
I158
tp1066
a(S'add'
p1067
I158
tp1068
a(S'firm'
p1069
I156
tp1070
a(S'allocated'
p1071
I156
tp1072
a(S'james'
p1073
I155
tp1074
a(S'tx'
p1075
I154
tp1076
a(S'results'
p1077
I154
tp1078
a(S'got'
p1079
I154
tp1080
a(S'marketing'
p1081
I154
tp1082
a(S'stocks'
p1083
I154
tp1084
a(S'calpine'
p1085
I153
tp1086
a(S'logistics'
p1087
I153
tp1088
a(S'might'
p1089
I153
tp1090
a(S'operations'
p1091
I153
tp1092
a(S'position'
p1093
I153
tp1094
a(S'cost'
p1095
I152
tp1096
a(S'party'
p1097
I152
tp1098
a(S'zero'
p1099
I152
tp1100
a(S'fax'
p1101
I152
tp1102
a(S'pt'
p1103
I151
tp1104
a(S'pops'
p1105
I151
tp1106
a(S'old'
p1107
I151
tp1108
a(S'flowed'
p1109
I151
tp1110
a(S'scheduling'
p1111
I151
tp1112
a(S'update'
p1113
I150
tp1114
a(S'dollars'
p1115
I150
tp1116
a(S'katy'
p1117
I150
tp1118
a(S'gco'
p1119
I150
tp1120
a(S'yahoo'
p1121
I149
tp1122
a(S'including'
p1123
I149
tp1124
a(S'follow'
p1125
I149
tp1126
a(S'already'
p1127
I148
tp1128
a(S'past'
p1129
I147
tp1130
a(S'error'
p1131
I147
tp1132
a(S'suite'
p1133
I147
tp1134
a(S'stop'
p1135
I145
tp1136
a(S'program'
p1137
I145
tp1138
a(S'page'
p1139
I145
tp1140
a(S'changed'
p1141
I145
tp1142
a(S'book'
p1143
I145
tp1144
a(S'equistar'
p1145
I144
tp1146
a(S'operating'
p1147
I144
tp1148
a(S'few'
p1149
I144
tp1150
a(S'better'
p1151
I144
tp1152
a(S'cotton'
p1153
I143
tp1154
a(S'move'
p1155
I143
tp1156
a(S'aep'
p1157
I142
tp1158
a(S'ees'
p1159
I141
tp1160
a(S'y'
p1161
I141
tp1162
a(S'state'
p1163
I141
tp1164
a(S'period'
p1165
I140
tp1166
a(S'provided'
p1167
I140
tp1168
a(S'rita'
p1169
I140
tp1170
a(S'employees'
p1171
I140
tp1172
a(S'morning'
p1173
I139
tp1174
a(S'cd'
p1175
I139
tp1176
a(S'hotmail'
p1177
I139
tp1178
a(S'real'
p1179
I138
tp1180
a(S'entex'
p1181
I138
tp1182
a(S'exchange'
p1183
I138
tp1184
a(S'swing'
p1185
I138
tp1186
a(S'tomorrow'
p1187
I137
tp1188
a(S'lst'
p1189
I137
tp1190
a(S'counterparty'
p1191
I136
tp1192
a(S'parker'
p1193
I136
tp1194
a(S'visit'
p1195
I135
tp1196
a(S'person'
p1197
I135
tp1198
a(S'valid'
p1199
I135
tp1200
a(S'follows'
p1201
I135
tp1202
a(S'little'
p1203
I134
tp1204
a(S'professional'
p1205
I134
tp1206
a(S'megan'
p1207
I133
tp1208
a(S'something'
p1209
I133
tp1210
a(S'confirm'
p1211
I133
tp1212
a(S'quality'
p1213
I133
tp1214
a(S'brenda'
p1215
I132
tp1216
a(S'storage'
p1217
I132
tp1218
a(S'im'
p1219
I132
tp1220
a(S'around'
p1221
I132
tp1222
a(S'windows'
p1223
I132
tp1224
a(S'case'
p1225
I131
tp1226
a(S'accounting'
p1227
I131
tp1228
a(S'ranch'
p1229
I131
tp1230
a(S'problems'
p1231
I131
tp1232
a(S'called'
p1233
I131
tp1234
a(S'tax'
p1235
I131
tp1236
a(S'teco'
p1237
I130
tp1238
a(S'always'
p1239
I130
tp1240
a(S'unsubscribe'
p1241
I130
tp1242
a(S'fact'
p1243
I130
tp1244
a(S'too'
p1245
I130
tp1246
a(S'never'
p1247
I129
tp1248
a(S'amount'
p1249
I129
tp1250
a(S'coastal'
p1251
I129
tp1252
a(S'acton'
p1253
I128
tp1254
a(S'love'
p1255
I128
tp1256
a(S'rodriguez'
p1257
I128
tp1258
a(S'pipe'
p1259
I127
tp1260
a(S'hope'
p1261
I127
tp1262
a(S'project'
p1263
I127
tp1264
a(S'limited'
p1265
I127
tp1266
a(S'shut'
p1267
I127
tp1268
a(S'full'
p1269
I126
tp1270
a(S'survey'
p1271
I126
tp1272
a(S'invoice'
p1273
I126
tp1274
a(S'ray'
p1275
I126
tp1276
a(S'credit'
p1277
I126
tp1278
a(S'scott'
p1279
I125
tp1280
a(S'yet'
p1281
I125
tp1282
a(S'ic'
p1283
I125
tp1284
a(S'anyone'
p1285
I125
tp1286
a(S'carlos'
p1287
I125
tp1288
a(S'wanted'
p1289
I125
tp1290
a(S'years'
p1291
I124
tp1292
a(S'soft'
p1293
I124
tp1294
a(S'charlie'
p1295
I124
tp1296
a(S'addition'
p1297
I123
tp1298
a(S'advise'
p1299
I123
tp1300
a(S'notice'
p1301
I123
tp1302
a(S'lsk'
p1303
I123
tp1304
a(S'donald'
p1305
I123
tp1306
a(S'wish'
p1307
I122
tp1308
a(S'hplnl'
p1309
I122
tp1310
a(S'katherine'
p1311
I122
tp1312
a(S'website'
p1313
I122
tp1314
a(S'shares'
p1315
I121
tp1316
a(S'cash'
p1317
I121
tp1318
a(S'cover'
p1319
I121
tp1320
a(S'imbalance'
p1321
I121
tp1322
a(S'schumack'
p1323
I121
tp1324
a(S'prescription'
p1325
I121
tp1326
a(S'handle'
p1327
I120
tp1328
a(S'united'
p1329
I120
tp1330
a(S'big'
p1331
I120
tp1332
a(S'weekend'
p1333
I119
tp1334
a(S'everyone'
p1335
I119
tp1336
a(S'city'
p1337
I119
tp1338
a(S'style'
p1339
I119
tp1340
a(S'stone'
p1341
I119
tp1342
a(S'producer'
p1343
I119
tp1344
a(S'clear'
p1345
I119
tp1346
a(S'requested'
p1347
I119
tp1348
a(S'payment'
p1349
I118
tp1350
a(S'left'
p1351
I118
tp1352
a(S'mobil'
p1353
I117
tp1354
a(S'extend'
p1355
I116
tp1356
a(S'small'
p1357
I116
tp1358
a(S'intended'
p1359
I116
tp1360
a(S'meet'
p1361
I116
tp1362
a(S'technology'
p1363
I116
tp1364
a(S'life'
p1365
I116
tp1366
a(S'confirmed'
p1367
I116
tp1368
a(S'shows'
p1369
I116
tp1370
a(S'box'
p1371
I115
tp1372
a(S'letter'
p1373
I115
tp1374
a(S'else'
p1375
I115
tp1376
a(S'schedule'
p1377
I115
tp1378
a(S'sherlyn'
p1379
I115
tp1380
a(S'lamphier'
p1381
I114
tp1382
a(S'bill'
p1383
I114
tp1384
a(S'newsletter'
p1385
I114
tp1386
a(S'release'
p1387
I114
tp1388
a(S'complete'
p1389
I114
tp1390
a(S'richard'
p1391
I114
tp1392
a(S'ever'
p1393
I114
tp1394
a(S'herod'
p1395
I113
tp1396
a(S'beginning'
p1397
I113
tp1398
a(S'having'
p1399
I113
tp1400
a(S'try'
p1401
I113
tp1402
a(S'papayoti'
p1403
I113
tp1404
a(S'mike'
p1405
I113
tp1406
a(S'clem'
p1407
I113
tp1408
a(S'anita'
p1409
I113
tp1410
a(S'personal'
p1411
I112
tp1412
a(S'cut'
p1413
I112
tp1414
a(S'location'
p1415
I112
tp1416
a(S'question'
p1417
I112
tp1418
a(S'estimates'
p1419
I112
tp1420
a(S'enter'
p1421
I112
tp1422
a(S'feedback'
p1423
I112
tp1424
a(S'things'
p1425
I112
tp1426
a(S'found'
p1427
I111
tp1428
a(S'cialis'
p1429
I111
tp1430
a(S'central'
p1431
I110
tp1432
a(S'terms'
p1433
I110
tp1434
a(S'dow'
p1435
I110
tp1436
a(S'area'
p1437
I110
tp1438
a(S'necessary'
p1439
I109
tp1440
a(S'third'
p1441
I109
tp1442
a(S'listed'
p1443
I109
tp1444
a(S'de'
p1445
I109
tp1446
a(S'run'
p1447
I109
tp1448
a(S'thomas'
p1449
I109
tp1450
a(S'meds'
p1451
I109
tp1452
a(S'reason'
p1453
I109
tp1454
a(S'president'
p1455
I109
tp1456
a(S'man'
p1457
I109
tp1458
a(S'midcon'
p1459
I109
tp1460
a(S'charge'
p1461
I109
tp1462
a(S'thought'
p1463
I109
tp1464
a(S'investing'
p1465
I108
tp1466
a(S'ask'
p1467
I108
tp1468
a(S'weeks'
p1469
I108
tp1470
a(S'capital'
p1471
I108
tp1472
a(S'added'
p1473
I108
tp1474
a(S'star'
p1475
I107
tp1476
a(S'extended'
p1477
I107
tp1478
a(S'several'
p1479
I107
tp1480
a(S'cannot'
p1481
I107
tp1482
a(S'commercial'
p1483
I107
tp1484
a(S'easy'
p1485
I107
tp1486
a(S'view'
p1487
I107
tp1488
a(S'union'
p1489
I106
tp1490
a(S'lauri'
p1491
I106
tp1492
a(S'beaumont'
p1493
I106
tp1494
a(S'cause'
p1495
I105
tp1496
a(S'times'
p1497
I105
tp1498
a(S'industry'
p1499
I105
tp1500
a(S'action'
p1501
I105
tp1502
a(S'open'
p1503
I105
tp1504
a(S'offers'
p1505
I105
tp1506
a(S'monthly'
p1507
I105
tp1508
a(S'states'
p1509
I104
tp1510
a(S'stephanie'
p1511
I104
tp1512
a(S'mailto'
p1513
I104
tp1514
a(S'flash'
p1515
I104
tp1516
a(S'download'
p1517
I104
tp1518
a(S'neal'
p1519
I104
tp1520
a(S'second'
p1521
I104
tp1522
a(S'side'
p1523
I104
tp1524
a(S'probably'
p1525
I104
tp1526
a(S'application'
p1527
I103
tp1528
a(S'basis'
p1529
I103
tp1530
a(S'transfer'
p1531
I103
tp1532
a(S'agree'
p1533
I103
tp1534
a(S'interested'
p1535
I103
tp1536
a(S'mcf'
p1537
I103
tp1538
a(S'koch'
p1539
I103
tp1540
a(S'mg'
p1541
I103
tp1542
a(S'exxon'
p1543
I103
tp1544
a(S'sept'
p1545
I103
tp1546
a(S'microsoft'
p1547
I103
tp1548
a(S'important'
p1549
I103
tp1550
a(S'remove'
p1551
I103
tp1552
a(S'doing'
p1553
I103
tp1554
a(S'final'
p1555
I103
tp1556
a(S'different'
p1557
I103
tp1558
a(S'dfarmer'
p1559
I102
tp1560
a(S'code'
p1561
I102
tp1562
a(S'together'
p1563
I102
tp1564
a(S'lp'
p1565
I102
tp1566
a(S'value'
p1567
I102
tp1568
a(S'requirements'
p1569
I102
tp1570
a(S'exploration'
p1571
I102
tp1572
a(S'mid'
p1573
I102
tp1574
a(S'east'
p1575
I102
tp1576
a(S'write'
p1577
I102
tp1578
a(S'thank'
p1579
I102
tp1580
a(S'receipt'
p1581
I101
tp1582
a(S'afternoon'
p1583
I101
tp1584
a(S'thu'
p1585
I101
tp1586
a(S'late'
p1587
I101
tp1588
a(S'enserch'
p1589
I101
tp1590
a(S'everything'
p1591
I101
tp1592
a(S'night'
p1593
I100
tp1594
a(S'lsp'
p1595
I100
tp1596
a(S'coming'
p1597
I100
tp1598
a(S'tell'
p1599
I100
tp1600
a(S'events'
p1601
I100
tp1602
a(S'bank'
p1603
I100
tp1604
a(S'cynthia'
p1605
I100
tp1606
a(S'response'
p1607
I100
tp1608
a(S'shipping'
p1609
I100
tp1610
a(S'close'
p1611
I99
tp1612
a(S'voip'
p1613
I99
tp1614
a(S'corporation'
p1615
I99
tp1616
a(S'direct'
p1617
I99
tp1618
a(S'legal'
p1619
I99
tp1620
a(S'options'
p1621
I99
tp1622
a(S'country'
p1623
I99
tp1624
a(S'ces'
p1625
I99
tp1626
a(S'expected'
p1627
I99
tp1628
a(S'really'
p1629
I99
tp1630
a(S'redeliveries'
p1631
I98
tp1632
a(S'victor'
p1633
I98
tp1634
a(S'nominated'
p1635
I98
tp1636
a(S'valero'
p1637
I98
tp1638
a(S'priced'
p1639
I98
tp1640
a(S'latest'
p1641
I98
tp1642
a(S'potential'
p1643
I98
tp1644
a(S'material'
p1645
I98
tp1646
a(S'stack'
p1647
I98
tp1648
a(S'etc'
p1649
I98
tp1650
a(S'edward'
p1651
I98
tp1652
a(S'loss'
p1653
I97
tp1654
a(S'remember'
p1655
I97
tp1656
a(S'private'
p1657
I97
tp1658
a(S'baumbach'
p1659
I97
tp1660
a(S'option'
p1661
I97
tp1662
a(S'version'
p1663
I96
tp1664
a(S'reinhardt'
p1665
I96
tp1666
a(S'included'
p1667
I96
tp1668
a(S'aware'
p1669
I96
tp1670
a(S'hesse'
p1671
I96
tp1672
a(S'public'
p1673
I96
tp1674
a(S'drugs'
p1675
I96
tp1676
a(S'longer'
p1677
I96
tp1678
a(S'revision'
p1679
I95
tp1680
a(S'kind'
p1681
I95
tp1682
a(S'health'
p1683
I95
tp1684
a(S'bgcolor'
p1685
I95
tp1686
a(S'completed'
p1687
I95
tp1688
a(S'related'
p1689
I95
tp1690
a(S'asked'
p1691
I95
tp1692
a(S'pro'
p1693
I95
tp1694
a(S'say'
p1695
I95
tp1696
a(S'discuss'
p1697
I95
tp1698
a(S'viagra'
p1699
I95
tp1700
a(S'away'
p1701
I94
tp1702
a(S'systems'
p1703
I94
tp1704
a(S'zone'
p1705
I94
tp1706
a(S'ready'
p1707
I94
tp1708
a(S'fill'
p1709
I94
tp1710
a(S'carthage'
p1711
I94
tp1712
a(S'plans'
p1713
I94
tp1714
a(S'registered'
p1715
I94
tp1716
a(S'mentioned'
p1717
I94
tp1718
a(S'computer'
p1719
I94
tp1720
a(S'industrial'
p1721
I94
tp1722
a(S'regards'
p1723
I94
tp1724
a(S'therefore'
p1725
I93
tp1726
a(S'jim'
p1727
I93
tp1728
a(S'sold'
p1729
I93
tp1730
a(S'costs'
p1731
I93
tp1732
a(S'image'
p1733
I93
tp1734
a(S'physical'
p1735
I93
tp1736
a(S'el'
p1737
I93
tp1738
a(S'donna'
p1739
I93
tp1740
a(S'track'
p1741
I93
tp1742
a(S'growth'
p1743
I93
tp1744
a(S'rd'
p1745
I93
tp1746
a(S'browser'
p1747
I93
tp1748
a(S'expect'
p1749
I93
tp1750
a(S'reports'
p1751
I93
tp1752
a(S'told'
p1753
I93
tp1754
a(S'south'
p1755
I93
tp1756
a(S'return'
p1757
I93
tp1758
a(S'china'
p1759
I92
tp1760
a(S'approximately'
p1761
I92
tp1762
a(S'showing'
p1763
I92
tp1764
a(S'stacey'
p1765
I92
tp1766
a(S'duty'
p1767
I92
tp1768
a(S'unit'
p1769
I92
tp1770
a(S'begin'
p1771
I92
tp1772
a(S'jones'
p1773
I92
tp1774
a(S'cs'
p1775
I91
tp1776
a(S'trying'
p1777
I91
tp1778
a(S'verify'
p1779
I91
tp1780
a(S'talk'
p1781
I91
tp1782
a(S'hard'
p1783
I91
tp1784
a(S'orders'
p1785
I91
tp1786
a(S'eol'
p1787
I91
tp1788
a(S'updated'
p1789
I91
tp1790
a(S'source'
p1791
I90
tp1792
a(S'strong'
p1793
I90
tp1794
a(S'base'
p1795
I90
tp1796
a(S'pathed'
p1797
I90
tp1798
a(S'server'
p1799
I90
tp1800
a(S'given'
p1801
I90
tp1802
a(S'bryan'
p1803
I89
tp1804
a(S'users'
p1805
I89
tp1806
a(S'whole'
p1807
I89
tp1808
a(S'purchases'
p1809
I89
tp1810
a(S'oo'
p1811
I89
tp1812
a(S'directly'
p1813
I89
tp1814
a(S'risks'
p1815
I89
tp1816
a(S'major'
p1817
I89
tp1818
a(S'karen'
p1819
I89
tp1820
a(S'luong'
p1821
I88
tp1822
a(S'easttexas'
p1823
I88
tp1824
a(S'level'
p1825
I88
tp1826
a(S'poorman'
p1827
I88
tp1828
a(S'ali'
p1829
I88
tp1830
a(S'required'
p1831
I88
tp1832
a(S'delivered'
p1833
I88
tp1834
a(S'riley'
p1835
I88
tp1836
a(S'bellamy'
p1837
I88
tp1838
a(S'portfolio'
p1839
I88
tp1840
a(S'didn'
p1841
I87
tp1842
a(S'department'
p1843
I87
tp1844
a(S'retail'
p1845
I87
tp1846
a(S'thing'
p1847
I87
tp1848
a(S'gif'
p1849
I87
tp1850
a(S'nothing'
p1851
I87
tp1852
a(S'cleburne'
p1853
I87
tp1854
a(S'assistance'
p1855
I87
tp1856
a(S'valley'
p1857
I87
tp1858
a(S'paste'
p1859
I86
tp1860
a(S'allow'
p1861
I86
tp1862
a(S'items'
p1863
I86
tp1864
a(S'avila'
p1865
I86
tp1866
a(S'answer'
p1867
I86
tp1868
a(S'gpgfin'
p1869
I86
tp1870
a(S'nguyen'
p1871
I85
tp1872
a(S'later'
p1873
I85
tp1874
a(S'ensure'
p1875
I85
tp1876
a(S'lone'
p1877
I85
tp1878
a(S'hall'
p1879
I85
tp1880
a(S'user'
p1881
I85
tp1882
a(S'reference'
p1883
I85
tp1884
a(S'mm'
p1885
I85
tp1886
a(S'taken'
p1887
I85
tp1888
a(S'spoke'
p1889
I84
tp1890
a(S'facility'
p1891
I84
tp1892
a(S'methanol'
p1893
I84
tp1894
a(S'though'
p1895
I84
tp1896
a(S'network'
p1897
I84
tp1898
a(S'tabs'
p1899
I84
tp1900
a(S'businesses'
p1901
I83
tp1902
a(S'status'
p1903
I83
tp1904
a(S'dy'
p1905
I83
tp1906
a(S'apache'
p1907
I83
tp1908
a(S'transportation'
p1909
I83
tp1910
a(S'purchased'
p1911
I83
tp1912
a(S'jeff'
p1913
I83
tp1914
a(S'paliourg'
p1915
I83
tp1916
a(S'taking'
p1917
I83
tp1918
a(S'says'
p1919
I83
tp1920
a(S'considered'
p1921
I83
tp1922
a(S'yourself'
p1923
I83
tp1924
a(S'fred'
p1925
I83
tp1926
a(S'nov'
p1927
I82
tp1928
a(S'assets'
p1929
I82
tp1930
a(S'lamadrid'
p1931
I82
tp1932
a(S'general'
p1933
I82
tp1934
a(S'morris'
p1935
I82
tp1936
a(S'oasis'
p1937
I82
tp1938
a(S'federal'
p1939
I82
tp1940
a(S'ltd'
p1941
I82
tp1942
a(S'statement'
p1943
I82
tp1944
a(S'brand'
p1945
I82
tp1946
a(S'reflect'
p1947
I82
tp1948
a(S'spam'
p1949
I81
tp1950
a(S'bridge'
p1951
I81
tp1952
a(S'compliance'
p1953
I81
tp1954
a(S'ability'
p1955
I81
tp1956
a(S'play'
p1957
I81
tp1958
a(S'enrononline'
p1959
I81
tp1960
a(S'availability'
p1961
I81
tp1962
a(S'oct'
p1963
I81
tp1964
a(S'fixed'
p1965
I80
tp1966
a(S'short'
p1967
I80
tp1968
a(S'hill'
p1969
I80
tp1970
a(S'king'
p1971
I80
tp1972
a(S'points'
p1973
I80
tp1974
a(S'effort'
p1975
I80
tp1976
a(S'aepin'
p1977
I80
tp1978
a(S'understanding'
p1979
I80
tp1980
a(S'cheryl'
p1981
I80
tp1982
a(S'reliantenergy'
p1983
I80
tp1984
a(S'chance'
p1985
I80
tp1986
a(S'quick'
p1987
I80
tp1988
a(S'key'
p1989
I79
tp1990
a(S'green'
p1991
I79
tp1992
a(S'valign'
p1993
I79
tp1994
a(S'guys'
p1995
I79
tp1996
a(S'understand'
p1997
I79
tp1998
a(S'god'
p1999
I79
tp2000
a(S'took'
p2001
I79
tp2002
a(S'capacity'
p2003
I79
tp2004
a(S'bring'
p2005
I79
tp2006
a(S'game'
p2007
I79
tp2008
a(S'wants'
p2009
I78
tp2010
a(S'meaning'
p2011
I78
tp2012
a(S'mx'
p2013
I78
tp2014
a(S'expectations'
p2015
I78
tp2016
a(S'hub'
p2017
I78
tp2018
a(S'property'
p2019
I78
tp2020
a(S'care'
p2021
I78
tp2022
a(S'johnson'
p2023
I78
tp2024
a(S'albrecht'
p2025
I78
tp2026
a(S'employee'
p2027
I78
tp2028
a(S'withers'
p2029
I78
tp2030
a(S'devon'
p2031
I77
tp2032
a(S'worldwide'
p2033
I77
tp2034
a(S'lose'
p2035
I77
tp2036
a(S'walker'
p2037
I77
tp2038
a(S'moved'
p2039
I77
tp2040
a(S'cernosek'
p2041
I77
tp2042
a(S'matter'
p2043
I77
tp2044
a(S'enw'
p2045
I77
tp2046
a(S'iferc'
p2047
I77
tp2048
a(S'large'
p2049
I77
tp2050
a(S'records'
p2051
I77
tp2052
a(S'referenced'
p2053
I77
tp2054
a(S'eileen'
p2055
I77
tp2056
a(S'ponton'
p2057
I77
tp2058
a(S'removed'
p2059
I77
tp2060
a(S'calls'
p2061
I77
tp2062
a(S'waha'
p2063
I76
tp2064
a(S'ship'
p2065
I76
tp2066
a(S'pc'
p2067
I76
tp2068
a(S'looks'
p2069
I76
tp2070
a(S'staff'
p2071
I76
tp2072
a(S'jennifer'
p2073
I76
tp2074
a(S'upon'
p2075
I76
tp2076
a(S'target'
p2077
I76
tp2078
a(S'enerfin'
p2079
I76
tp2080
a(S'travel'
p2081
I75
tp2082
a(S'making'
p2083
I75
tp2084
a(S'partner'
p2085
I75
tp2086
a(S'impact'
p2087
I75
tp2088
a(S'cp'
p2089
I75
tp2090
a(S'hear'
p2091
I75
tp2092
a(S'shall'
p2093
I75
tp2094
a(S'takes'
p2095
I75
tp2096
a(S'immediately'
p2097
I75
tp2098
a(S'listing'
p2099
I75
tp2100
a(S'sat'
p2101
I75
tp2102
a(S'went'
p2103
I75
tp2104
a(S'channel'
p2105
I75
tp2106
a(S'others'
p2107
I75
tp2108
a(S'paso'
p2109
I74
tp2110
a(S'stay'
p2111
I74
tp2112
a(S'earl'
p2113
I74
tp2114
a(S'tejas'
p2115
I74
tp2116
a(S'enough'
p2117
I74
tp2118
a(S'choose'
p2119
I74
tp2120
a(S'processing'
p2121
I74
tp2122
a(S'doesn'
p2123
I74
tp2124
a(S'cornhusker'
p2125
I74
tp2126
a(S'adobe'
p2127
I74
tp2128
a(S'starting'
p2129
I74
tp2130
a(S'includes'
p2131
I74
tp2132
a(S'distribution'
p2133
I74
tp2134
a(S'reserves'
p2135
I74
tp2136
a(S'sally'
p2137
I74
tp2138
a(S'superty'
p2139
I74
tp2140
a(S'transactions'
p2141
I74
tp2142
a(S'early'
p2143
I74
tp2144
a(S'approved'
p2145
I74
tp2146
a(S'publisher'
p2147
I74
tp2148
a(S'jpg'
p2149
I73
tp2150
a(S'saturday'
p2151
I73
tp2152
a(S'herrera'
p2153
I73
tp2154
a(S'moopid'
p2155
I73
tp2156
a(S'half'
p2157
I73
tp2158
a(S'solution'
p2159
I73
tp2160
a(S'pain'
p2161
I73
tp2162
a(S'drive'
p2163
I73
tp2164
a(S'password'
p2165
I73
tp2166
a(S'markets'
p2167
I73
tp2168
a(S'shell'
p2169
I73
tp2170
a(S'training'
p2171
I73
tp2172
a(S'hotlist'
p2173
I73
tp2174
a(S'content'
p2175
I73
tp2176
a(S'print'
p2177
I73
tp2178
a(S'excess'
p2179
I72
tp2180
a(S'happy'
p2181
I72
tp2182
a(S'vacation'
p2183
I72
tp2184
a(S'sex'
p2185
I72
tp2186
a(S'fund'
p2187
I72
tp2188
a(S'existing'
p2189
I72
tp2190
a(S'balance'
p2191
I72
tp2192
a(S'super'
p2193
I72
tp2194
a(S'experience'
p2195
I71
tp2196
a(S'appreciate'
p2197
I71
tp2198
a(S'non'
p2199
I71
tp2200
a(S'fwd'
p2201
I71
tp2202
a(S'won'
p2203
I71
tp2204
a(S'stella'
p2205
I71
tp2206
a(S'four'
p2207
I71
tp2208
a(S'wells'
p2209
I71
tp2210
a(S'sign'
p2211
I71
tp2212
a(S'card'
p2213
I71
tp2214
a(S'savings'
p2215
I71
tp2216
a(S'share'
p2217
I71
tp2218
a(S'text'
p2219
I71
tp2220
a(S'tisdale'
p2221
I71
tp2222
a(S'couple'
p2223
I70
tp2224
a(S'land'
p2225
I70
tp2226
a(S'flowing'
p2227
I70
tp2228
a(S'occur'
p2229
I70
tp2230
a(S'settlements'
p2231
I70
tp2232
a(S'images'
p2233
I70
tp2234
a(S'expense'
p2235
I70
tp2236
a(S'sun'
p2237
I70
tp2238
a(S'informed'
p2239
I70
tp2240
a(S'mar'
p2241
I70
tp2242
a(S'watch'
p2243
I70
tp2244
a(S'plus'
p2245
I70
tp2246
a(S'draft'
p2247
I70
tp2248
a(S'biz'
p2249
I70
tp2250
a(S'become'
p2251
I69
tp2252
a(S'neon'
p2253
I69
tp2254
a(S'photoshop'
p2255
I69
tp2256
a(S'entire'
p2257
I69
tp2258
a(S'instructions'
p2259
I69
tp2260
a(S'weight'
p2261
I69
tp2262
a(S'dynegy'
p2263
I69
tp2264
a(S'activities'
p2265
I69
tp2266
a(S'attention'
p2267
I69
tp2268
a(S'mr'
p2269
I69
tp2270
a(S'terry'
p2271
I69
tp2272
a(S'format'
p2273
I69
tp2274
a(S'williams'
p2275
I69
tp2276
a(S'darren'
p2277
I69
tp2278
a(S'cheap'
p2279
I69
tp2280
a(S'music'
p2281
I68
tp2282
a(S'contains'
p2283
I68
tp2284
a(S'friends'
p2285
I68
tp2286
a(S'against'
p2287
I68
tp2288
a(S'boas'
p2289
I68
tp2290
a(S'certain'
p2291
I68
tp2292
a(S'ago'
p2293
I68
tp2294
a(S'liz'
p2295
I68
tp2296
a(S'janet'
p2297
I68
tp2298
a(S'svcs'
p2299
I68
tp2300
a(S'dave'
p2301
I67
tp2302
a(S'director'
p2303
I67
tp2304
a(S'comments'
p2305
I67
tp2306
a(S'fun'
p2307
I67
tp2308
a(S'instant'
p2309
I67
tp2310
a(S'fast'
p2311
I67
tp2312
a(S'record'
p2313
I67
tp2314
a(S'rest'
p2315
I67
tp2316
a(S'ua'
p2317
I67
tp2318
a(S'investors'
p2319
I67
tp2320
a(S'held'
p2321
I67
tp2322
a(S'mind'
p2323
I67
tp2324
a(S'partners'
p2325
I67
tp2326
a(S'publication'
p2327
I67
tp2328
a(S'differ'
p2329
I67
tp2330
a(S'communications'
p2331
I67
tp2332
a(S'agent'
p2333
I67
tp2334
a(S'expedia'
p2335
I67
tp2336
a(S'safe'
p2337
I66
tp2338
a(S'intrastate'
p2339
I66
tp2340
a(S'kevin'
p2341
I66
tp2342
a(S'assist'
p2343
I66
tp2344
a(S'allocate'
p2345
I66
tp2346
a(S'document'
p2347
I66
tp2348
a(S'approval'
p2349
I66
tp2350
a(S'black'
p2351
I66
tp2352
a(S'none'
p2353
I66
tp2354
a(S'eric'
p2355
I66
tp2356
a(S'hakemack'
p2357
I66
tp2358
a(S'discussion'
p2359
I65
tp2360
a(S'missing'
p2361
I65
tp2362
a(S'jill'
p2363
I65
tp2364
a(S'colspan'
p2365
I65
tp2366
a(S'relief'
p2367
I65
tp2368
a(S'press'
p2369
I65
tp2370
a(S'al'
p2371
I65
tp2372
a(S'secure'
p2373
I65
tp2374
a(S'respect'
p2375
I65
tp2376
a(S'specific'
p2377
I65
tp2378
a(S'lower'
p2379
I65
tp2380
a(S'holmes'
p2381
I65
tp2382
a(S'expired'
p2383
I65
tp2384
a(S'technologies'
p2385
I65
tp2386
a(S'five'
p2387
I65
tp2388
a(S'cc'
p2389
I65
tp2390
a(S'active'
p2391
I65
tp2392
a(S'white'
p2393
I65
tp2394
a(S'determine'
p2395
I65
tp2396
a(S'pass'
p2397
I64
tp2398
a(S'video'
p2399
I64
tp2400
a(S'sorry'
p2401
I64
tp2402
a(S'men'
p2403
I64
tp2404
a(S'medical'
p2405
I64
tp2406
a(S'knle'
p2407
I64
tp2408
a(S'limit'
p2409
I64
tp2410
a(S'leave'
p2411
I64
tp2412
a(S'air'
p2413
I64
tp2414
a(S'gomes'
p2415
I64
tp2416
a(S'projects'
p2417
I64
tp2418
a(S'pinion'
p2419
I64
tp2420
a(S'doctor'
p2421
I64
tp2422
a(S'yesterday'
p2423
I64
tp2424
a(S'outage'
p2425
I63
tp2426
a(S'ken'
p2427
I63
tp2428
a(S'room'
p2429
I63
tp2430
a(S'blue'
p2431
I63
tp2432
a(S'confirmation'
p2433
I63
tp2434
a(S'pharmacy'
p2435
I63
tp2436
a(S'involve'
p2437
I63
tp2438
a(S'confidential'
p2439
I63
tp2440
a(S'messages'
p2441
I63
tp2442
a(S'estimated'
p2443
I63
tp2444
a(S'prc'
p2445
I63
tp2446
a(S'started'
p2447
I63
tp2448
a(S'officer'
p2449
I63
tp2450
a(S'gtc'
p2451
I63
tp2452
a(S'notify'
p2453
I63
tp2454
a(S'class'
p2455
I63
tp2456
a(S'opportunity'
p2457
I63
tp2458
a(S'database'
p2459
I63
tp2460
a(S'reach'
p2461
I63
tp2462
a(S'words'
p2463
I63
tp2464
a(S'demokritos'
p2465
I62
tp2466
a(S'bruce'
p2467
I62
tp2468
a(S'transition'
p2469
I62
tp2470
a(S'gulf'
p2471
I62
tp2472
a(S'tracked'
p2473
I62
tp2474
a(S'middle'
p2475
I62
tp2476
a(S'national'
p2477
I62
tp2478
a(S'provides'
p2479
I62
tp2480
a(S'rc'
p2481
I62
tp2482
a(S'average'
p2483
I62
tp2484
a(S'billed'
p2485
I62
tp2486
a(S'louisiana'
p2487
I62
tp2488
a(S'heard'
p2489
I62
tp2490
a(S'files'
p2491
I62
tp2492
a(S'mccoy'
p2493
I62
tp2494
a(S'light'
p2495
I62
tp2496
a(S'iit'
p2497
I62
tp2498
a(S'hot'
p2499
I62
tp2500
a(S'select'
p2501
I62
tp2502
a(S'mckay'
p2503
I62
tp2504
a(S'exactly'
p2505
I62
tp2506
a(S'offering'
p2507
I62
tp2508
a(S'dan'
p2509
I62
tp2510
a(S'wide'
p2511
I62
tp2512
a(S'roll'
p2513
I61
tp2514
a(S'perfect'
p2515
I61
tp2516
a(S'greater'
p2517
I61
tp2518
a(S'reveffo'
p2519
I61
tp2520
a(S'prize'
p2521
I61
tp2522
a(S'pick'
p2523
I61
tp2524
a(S'receiving'
p2525
I61
tp2526
a(S'sunday'
p2527
I61
tp2528
a(S'appear'
p2529
I61
tp2530
a(S'featured'
p2531
I61
tp2532
a(S'join'
p2533
I61
tp2534
a(S'html'
p2535
I61
tp2536
a(S'cdnow'
p2537
I61
tp2538
a(S'mops'
p2539
I61
tp2540
a(S'features'
p2541
I61
tp2542
a(S'event'
p2543
I61
tp2544
a(S'william'
p2545
I61
tp2546
a(S'california'
p2547
I61
tp2548
a(S'olsen'
p2549
I61
tp2550
a(S'estimate'
p2551
I60
tp2552
a(S'advised'
p2553
I60
tp2554
a(S'monitor'
p2555
I60
tp2556
a(S'elizabeth'
p2557
I60
tp2558
a(S'school'
p2559
I60
tp2560
a(S'bought'
p2561
I60
tp2562
a(S'near'
p2563
I60
tp2564
a(S'unaccounted'
p2565
I60
tp2566
a(S'evergreen'
p2567
I60
tp2568
a(S'package'
p2569
I60
tp2570
a(S'history'
p2571
I60
tp2572
a(S'expects'
p2573
I60
tp2574
a(S'difference'
p2575
I60
tp2576
a(S'paragraph'
p2577
I60
tp2578
a(S'common'
p2579
I60
tp2580
a(S'whether'
p2581
I60
tp2582
a(S'result'
p2583
I60
tp2584
a(S'title'
p2585
I60
tp2586
a(S'sources'
p2587
I60
tp2588
a(S'uncertainties'
p2589
I59
tp2590
a(S'worth'
p2591
I59
tp2592
a(S'discussions'
p2593
I59
tp2594
a(S'ceo'
p2595
I59
tp2596
a(S'brazos'
p2597
I59
tp2598
a(S'concerns'
p2599
I59
tp2600
a(S'goes'
p2601
I59
tp2602
a(S'turn'
p2603
I59
tp2604
a(S'php'
p2605
I59
tp2606
a(S'kimberly'
p2607
I59
tp2608
a(S'associated'
p2609
I59
tp2610
a(S'reduce'
p2611
I59
tp2612
a(S'representative'
p2613
I59
tp2614
a(S'wi'
p2615
I59
tp2616
a(S'members'
p2617
I59
tp2618
a(S'canada'
p2619
I59
tp2620
a(S'london'
p2621
I59
tp2622
a(S'communication'
p2623
I59
tp2624
a(S'increased'
p2625
I59
tp2626
a(S'asap'
p2627
I59
tp2628
a(S'committed'
p2629
I59
tp2630
a(S'claim'
p2631
I59
tp2632
a(S'trader'
p2633
I59
tp2634
a(S'waiting'
p2635
I59
tp2636
a(S'hour'
p2637
I58
tp2638
a(S'trevino'
p2639
I58
tp2640
a(S'la'
p2641
I58
tp2642
a(S'gift'
p2643
I58
tp2644
a(S'groups'
p2645
I58
tp2646
a(S'tufco'
p2647
I58
tp2648
a(S'involved'
p2649
I58
tp2650
a(S'southern'
p2651
I58
tp2652
a(S'calling'
p2653
I58
tp2654
a(S'corporate'
p2655
I57
tp2656
a(S'role'
p2657
I57
tp2658
a(S'west'
p2659
I57
tp2660
a(S'situation'
p2661
I57
tp2662
a(S'nor'
p2663
I57
tp2664
a(S'similar'
p2665
I57
tp2666
a(S'previously'
p2667
I57
tp2668
a(S'remain'
p2669
I57
tp2670
a(S'express'
p2671
I57
tp2672
a(S'respond'
p2673
I57
tp2674
a(S'county'
p2675
I57
tp2676
a(S'interconnect'
p2677
I57
tp2678
a(S'recent'
p2679
I57
tp2680
a(S'voice'
p2681
I57
tp2682
a(S'according'
p2683
I57
tp2684
a(S'ok'
p2685
I57
tp2686
a(S'came'
p2687
I57
tp2688
a(S'suggestions'
p2689
I57
tp2690
a(S'readers'
p2691
I57
tp2692
a(S'projections'
p2693
I57
tp2694
a(S'lot'
p2695
I57
tp2696
a(S'generic'
p2697
I57
tp2698
a(S'normally'
p2699
I57
tp2700
a(S'hold'
p2701
I57
tp2702
a(S'subscribers'
p2703
I57
tp2704
a(S'word'
p2705
I57
tp2706
a(S'purchasing'
p2707
I57
tp2708
a(S'resolve'
p2709
I57
tp2710
a(S'efforts'
p2711
I57
tp2712
a(S'opportunities'
p2713
I57
tp2714
a(S'learn'
p2715
I56
tp2716
a(S'american'
p2717
I56
tp2718
a(S'resolved'
p2719
I56
tp2720
a(S'promotions'
p2721
I56
tp2722
a(S'cass'
p2723
I56
tp2724
a(S'img'
p2725
I56
tp2726
a(S'agreed'
p2727
I56
tp2728
a(S'responsible'
p2729
I56
tp2730
a(S'parties'
p2731
I56
tp2732
a(S'sec'
p2733
I56
tp2734
a(S'winfree'
p2735
I56
tp2736
a(S'panenergy'
p2737
I56
tp2738
a(S'enjoy'
p2739
I56
tp2740
a(S'head'
p2741
I56
tp2742
a(S'outstanding'
p2743
I56
tp2744
a(S'member'
p2745
I56
tp2746
a(S'register'
p2747
I56
tp2748
a(S'rnd'
p2749
I56
tp2750
a(S'lead'
p2751
I56
tp2752
a(S'spinnaker'
p2753
I55
tp2754
a(S'usage'
p2755
I55
tp2756
a(S'believes'
p2757
I55
tp2758
a(S'beverly'
p2759
I55
tp2760
a(S'media'
p2761
I55
tp2762
a(S'assignment'
p2763
I55
tp2764
a(S'require'
p2765
I55
tp2766
a(S'model'
p2767
I55
tp2768
a(S'selling'
p2769
I55
tp2770
a(S'copano'
p2771
I55
tp2772
a(S'facilities'
p2773
I55
tp2774
a(S'gdp'
p2775
I55
tp2776
a(S'appropriate'
p2777
I55
tp2778
a(S'submit'
p2779
I55
tp2780
a(S'opinion'
p2781
I55
tp2782
a(S'ews'
p2783
I55
tp2784
a(S'identified'
p2785
I55
tp2786
a(S'factors'
p2787
I55
tp2788
a(S'greg'
p2789
I54
tp2790
a(S'manage'
p2791
I54
tp2792
a(S'across'
p2793
I54
tp2794
a(S'profile'
p2795
I54
tp2796
a(S'local'
p2797
I54
tp2798
a(S'job'
p2799
I54
tp2800
a(S'strangers'
p2801
I54
tp2802
a(S'girls'
p2803
I54
tp2804
a(S'digital'
p2805
I54
tp2806
a(S'delta'
p2807
I54
tp2808
a(S'goliad'
p2809
I54
tp2810
a(S'usa'
p2811
I54
tp2812
a(S'hesco'
p2813
I54
tp2814
a(S'vs'
p2815
I54
tp2816
a(S'deliver'
p2817
I54
tp2818
a(S'rolex'
p2819
I54
tp2820
a(S'suggest'
p2821
I54
tp2822
a(S'fees'
p2823
I54
tp2824
a(S'cf'
p2825
I54
tp2826
a(S'neuweiler'
p2827
I54
tp2828
a(S'bad'
p2829
I54
tp2830
a(S'registration'
p2831
I54
tp2832
a(S'quarter'
p2833
I53
tp2834
a(S'placed'
p2835
I53
tp2836
a(S'gain'
p2837
I53
tp2838
a(S'primary'
p2839
I53
tp2840
a(S'petroleum'
p2841
I53
tp2842
a(S'ei'
p2843
I53
tp2844
a(S'pre'
p2845
I53
tp2846
a(S'recipient'
p2847
I53
tp2848
a(S'seek'
p2849
I53
tp2850
a(S'instead'
p2851
I53
tp2852
a(S'course'
p2853
I53
tp2854
a(S'medications'
p2855
I53
tp2856
a(S'chairman'
p2857
I53
tp2858
a(S'force'
p2859
I53
tp2860
a(S'fine'
p2861
I53
tp2862
a(S'lake'
p2863
I53
tp2864
a(S'success'
p2865
I53
tp2866
a(S'notes'
p2867
I53
tp2868
a(S'basin'
p2869
I52
tp2870
a(S'assigned'
p2871
I52
tp2872
a(S'invoices'
p2873
I52
tp2874
a(S'discussed'
p2875
I52
tp2876
a(S'emails'
p2877
I52
tp2878
a(S'ext'
p2879
I52
tp2880
a(S'owner'
p2881
I52
tp2882
a(S'means'
p2883
I52
tp2884
a(S'ed'
p2885
I52
tp2886
a(S'ex'
p2887
I52
tp2888
a(S'gd'
p2889
I52
tp2890
a(S'reflects'
p2891
I52
tp2892
a(S'located'
p2893
I52
tp2894
a(S'apr'
p2895
I52
tp2896
a(S'asking'
p2897
I52
tp2898
a(S'least'
p2899
I52
tp2900
a(S'solutions'
p2901
I52
tp2902
a(S'known'
p2903
I52
tp2904
a(S'cds'
p2905
I52
tp2906
a(S'present'
p2907
I52
tp2908
a(S'along'
p2909
I52
tp2910
a(S'br'
p2911
I52
tp2912
a(S'age'
p2913
I52
tp2914
a(S'htmlimg'
p2915
I52
tp2916
a(S'house'
p2917
I52
tp2918
a(S'hanson'
p2919
I52
tp2920
a(S'body'
p2921
I52
tp2922
a(S'nominate'
p2923
I52
tp2924
a(S'sullivan'
p2925
I52
tp2926
a(S'agency'
p2927
I52
tp2928
a(S'various'
p2929
I52
tp2930
a(S'ones'
p2931
I52
tp2932
a(S'lots'
p2933
I51
tp2934
a(S'met'
p2935
I51
tp2936
a(S'wholesale'
p2937
I51
tp2938
a(S'store'
p2939
I51
tp2940
a(S'range'
p2941
I51
tp2942
a(S'recorded'
p2943
I51
tp2944
a(S'higher'
p2945
I51
tp2946
a(S'est'
p2947
I51
tp2948
a(S'worked'
p2949
I51
tp2950
a(S'linda'
p2951
I51
tp2952
a(S'car'
p2953
I51
tp2954
a(S'seen'
p2955
I51
tp2956
a(S'revenue'
p2957
I51
tp2958
a(S'properties'
p2959
I51
tp2960
a(S'brown'
p2961
I51
tp2962
a(S'kcs'
p2963
I51
tp2964
a(S'wait'
p2965
I51
tp2966
a(S'booked'
p2967
I51
tp2968
a(S'far'
p2969
I51
tp2970
a(S'women'
p2971
I51
tp2972
a(S'huge'
p2973
I50
tp2974
a(S'connection'
p2975
I50
tp2976
a(S'grant'
p2977
I50
tp2978
a(S'investor'
p2979
I50
tp2980
a(S'origination'
p2981
I50
tp2982
a(S'wilson'
p2983
I50
tp2984
a(S'providing'
p2985
I50
tp2986
a(S'summary'
p2987
I50
tp2988
a(S'pgev'
p2989
I50
tp2990
a(S'paths'
p2991
I50
tp2992
a(S'red'
p2993
I50
tp2994
a(S'advantage'
p2995
I50
tp2996
a(S'planning'
p2997
I50
tp2998
a(S'golf'
p2999
I50
tp3000
a(S'kelly'
p3001
I50
tp3002
a(S'encina'
p3003
I50
tp3004
a(S'item'
p3005
I50
tp3006
a(S'pipes'
p3007
I50
tp3008
a(S'match'
p3009
I50
tp3010
a(S'expenses'
p3011
I50
tp3012
a(S'focus'
p3013
I50
tp3014
a(S'beaty'
p3015
I50
tp3016
a(S'handling'
p3017
I50
tp3018
a(S'input'
p3019
I50
tp3020
a(S'draw'
p3021
I50
tp3022
a(S'apply'
p3023
I50
tp3024
a(S'bankruptcy'
p3025
I50
tp3026
a(S'analysis'
p3027
I50
tp3028
a(S'dth'
p3029
I49
tp3030
a(S'memo'
p3031
I49
tp3032
a(S'coupon'
p3033
I49
tp3034
a(S'behalf'
p3035
I49
tp3036
a(S'thousand'
p3037
I49
tp3038
a(S'friend'
p3039
I49
tp3040
a(S'herein'
p3041
I49
tp3042
a(S'names'
p3043
I49
tp3044
a(S'oi'
p3045
I49
tp3046
a(S'sa'
p3047
I49
tp3048
a(S'gisb'
p3049
I49
tp3050
a(S'mills'
p3051
I49
tp3052
a(S'initial'
p3053
I49
tp3054
a(S'talked'
p3055
I49
tp3056
a(S'button'
p3057
I49
tp3058
a(S'martin'
p3059
I49
tp3060
a(S'bit'
p3061
I49
tp3062
a(S'penis'
p3063
I49
tp3064
a(S'preliminary'
p3065
I49
tp3066
a(S'conversation'
p3067
I49
tp3068
a(S'multiple'
p3069
I49
tp3070
a(S'door'
p3071
I48
tp3072
a(S'research'
p3073
I48
tp3074
a(S'sending'
p3075
I48
tp3076
a(S'popular'
p3077
I48
tp3078
a(S'resume'
p3079
I48
tp3080
a(S'arrangements'
p3081
I48
tp3082
a(S'csikos'
p3083
I48
tp3084
a(S'applications'
p3085
I48
tp3086
a(S'cpr'
p3087
I48
tp3088
a(S'appears'
p3089
I48
tp3090
a(S'maintenance'
p3091
I48
tp3092
a(S'gb'
p3093
I48
tp3094
a(S'sandi'
p3095
I48
tp3096
a(S'represent'
p3097
I48
tp3098
a(S'hplnol'
p3099
I48
tp3100
a(S'paying'
p3101
I48
tp3102
a(S'texaco'
p3103
I48
tp3104
a(S'announced'
p3105
I48
tp3106
a(S'board'
p3107
I48
tp3108
a(S'conditions'
p3109
I48
tp3110
a(S'expires'
p3111
I48
tp3112
a(S'reporting'
p3113
I48
tp3114
a(S'acquisition'
p3115
I48
tp3116
a(S'objectives'
p3117
I48
tp3118
a(S'ca'
p3119
I48
tp3120
a(S'tried'
p3121
I48
tp3122
a(S'buyer'
p3123
I48
tp3124
a(S'normal'
p3125
I48
tp3126
a(S'attachment'
p3127
I48
tp3128
a(S'prod'
p3129
I48
tp3130
a(S'station'
p3131
I47
tp3132
a(S'chris'
p3133
I47
tp3134
a(S'positions'
p3135
I47
tp3136
a(S'somehow'
p3137
I47
tp3138
a(S'tetco'
p3139
I47
tp3140
a(S'earlier'
p3141
I47
tp3142
a(S'jo'
p3143
I47
tp3144
a(S'xanax'
p3145
I47
tp3146
a(S'pena'
p3147
I47
tp3148
a(S'individual'
p3149
I47
tp3150
a(S'recently'
p3151
I47
tp3152
a(S'valium'
p3153
I47
tp3154
a(S'td'
p3155
I47
tp3156
a(S'government'
p3157
I47
tp3158
a(S'happen'
p3159
I47
tp3160
a(S'decided'
p3161
I47
tp3162
a(S'discount'
p3163
I47
tp3164
a(S'broadband'
p3165
I47
tp3166
a(S'holding'
p3167
I47
tp3168
a(S'committee'
p3169
I47
tp3170
a(S'financing'
p3171
I47
tp3172
a(S'mailing'
p3173
I47
tp3174
a(S'running'
p3175
I47
tp3176
a(S'paper'
p3177
I46
tp3178
a(S'ftar'
p3179
I46
tp3180
a(S'test'
p3181
I46
tp3182
a(S'charlotte'
p3183
I46
tp3184
a(S'kristen'
p3185
I46
tp3186
a(S'quickly'
p3187
I46
tp3188
a(S'gave'
p3189
I46
tp3190
a(S'inform'
p3191
I46
tp3192
a(S'wife'
p3193
I46
tp3194
a(S'internal'
p3195
I46
tp3196
a(S'dr'
p3197
I46
tp3198
a(S'live'
p3199
I46
tp3200
a(S'comes'
p3201
I46
tp3202
a(S'hl'
p3203
I46
tp3204
a(S'titles'
p3205
I46
tp3206
a(S'attend'
p3207
I46
tp3208
a(S'minutes'
p3209
I46
tp3210
a(S'ms'
p3211
I46
tp3212
a(S'enterprise'
p3213
I46
tp3214
a(S'msn'
p3215
I46
tp3216
a(S'ooking'
p3217
I46
tp3218
a(S'rx'
p3219
I46
tp3220
a(S'spring'
p3221
I46
tp3222
a(S'highly'
p3223
I46
tp3224
a(S'affiliate'
p3225
I46
tp3226
a(S'ideas'
p3227
I46
tp3228
a(S'phillips'
p3229
I46
tp3230
a(S'floor'
p3231
I46
tp3232
a(S'benefit'
p3233
I46
tp3234
a(S'mobile'
p3235
I46
tp3236
a(S'privacy'
p3237
I46
tp3238
a(S'critical'
p3239
I46
tp3240
a(S'lonestar'
p3241
I46
tp3242
a(S'gotten'
p3243
I46
tp3244
a(S'dallas'
p3245
I46
tp3246
a(S'ebs'
p3247
I46
tp3248
a(S'percent'
p3249
I46
tp3250
a(S'minute'
p3251
I45
tp3252
a(S'amazon'
p3253
I45
tp3254
a(S'selected'
p3255
I45
tp3256
a(S'assumptions'
p3257
I45
tp3258
a(S'nominates'
p3259
I45
tp3260
a(S'unique'
p3261
I45
tp3262
a(S'stated'
p3263
I45
tp3264
a(S'accept'
p3265
I45
tp3266
a(S'immediate'
p3267
I45
tp3268
a(S'acceptance'
p3269
I45
tp3270
a(S'kinsey'
p3271
I45
tp3272
a(S'mitchell'
p3273
I45
tp3274
a(S'baxter'
p3275
I45
tp3276
a(S'correctly'
p3277
I45
tp3278
a(S'facts'
p3279
I45
tp3280
a(S'termination'
p3281
I45
tp3282
a(S'bid'
p3283
I45
tp3284
a(S'centana'
p3285
I45
tp3286
a(S'hawkins'
p3287
I45
tp3288
a(S'sweeney'
p3289
I45
tp3290
a(S'goals'
p3291
I45
tp3292
a(S'shop'
p3293
I45
tp3294
a(S'single'
p3295
I45
tp3296
a(S'sap'
p3297
I45
tp3298
a(S'building'
p3299
I45
tp3300
a(S'actually'
p3301
I45
tp3302
a(S'pill'
p3303
I45
tp3304
a(S'guarantee'
p3305
I45
tp3306
a(S'exclusive'
p3307
I45
tp3308
a(S'senior'
p3309
I45
tp3310
a(S'category'
p3311
I45
tp3312
a(S'extra'
p3313
I44
tp3314
a(S'among'
p3315
I44
tp3316
a(S'adjustment'
p3317
I44
tp3318
a(S'josey'
p3319
I44
tp3320
a(S'indicate'
p3321
I44
tp3322
a(S'rather'
p3323
I44
tp3324
a(S'egmnom'
p3325
I44
tp3326
a(S'lindley'
p3327
I44
tp3328
a(S'talking'
p3329
I44
tp3330
a(S'understood'
p3331
I44
tp3332
a(S'gold'
p3333
I44
tp3334
a(S'accuracy'
p3335
I44
tp3336
a(S'remaining'
p3337
I44
tp3338
a(S'arrangement'
p3339
I44
tp3340
a(S'kim'
p3341
I44
tp3342
a(S'simply'
p3343
I44
tp3344
a(S'accounts'
p3345
I44
tp3346
a(S'logos'
p3347
I44
tp3348
a(S'mean'
p3349
I44
tp3350
a(S'europe'
p3351
I44
tp3352
a(S'load'
p3353
I44
tp3354
a(S'purposes'
p3355
I44
tp3356
a(S'lowest'
p3357
I44
tp3358
a(S'updates'
p3359
I44
tp3360
a(S'road'
p3361
I44
tp3362
a(S'entry'
p3363
I44
tp3364
a(S'funds'
p3365
I44
tp3366
a(S'fri'
p3367
I43
tp3368
a(S'schneider'
p3369
I43
tp3370
a(S'additionally'
p3371
I43
tp3372
a(S'analyst'
p3373
I43
tp3374
a(S'father'
p3375
I43
tp3376
a(S'vols'
p3377
I43
tp3378
a(S'crude'
p3379
I43
tp3380
a(S'congress'
p3381
I43
tp3382
a(S'clearance'
p3383
I43
tp3384
a(S'documents'
p3385
I43
tp3386
a(S'kept'
p3387
I43
tp3388
a(S'speed'
p3389
I43
tp3390
a(S'resellers'
p3391
I43
tp3392
a(S'hi'
p3393
I43
tp3394
a(S'jr'
p3395
I43
tp3396
a(S'counterparties'
p3397
I43
tp3398
a(S'notified'
p3399
I43
tp3400
a(S'serve'
p3401
I43
tp3402
a(S'profit'
p3403
I43
tp3404
a(S'connor'
p3405
I43
tp3406
a(S'shipped'
p3407
I43
tp3408
a(S'cap'
p3409
I43
tp3410
a(S'anticipated'
p3411
I43
tp3412
a(S'jackson'
p3413
I43
tp3414
a(S'ftworth'
p3415
I43
tp3416
a(S'dollar'
p3417
I43
tp3418
a(S'almost'
p3419
I43
tp3420
a(S'aug'
p3421
I43
tp3422
a(S'paul'
p3423
I43
tp3424
a(S'q'
p3425
I43
tp3426
a(S'shopping'
p3427
I43
tp3428
a(S'epgt'
p3429
I43
tp3430
a(S'z'
p3431
I43
tp3432
a(S'fontfont'
p3433
I43
tp3434
a(S'wrong'
p3435
I42
tp3436
a(S'split'
p3437
I42
tp3438
a(S'letters'
p3439
I42
tp3440
a(S'historical'
p3441
I42
tp3442
a(S'invitation'
p3443
I42
tp3444
a(S'submitted'
p3445
I42
tp3446
a(S'lost'
p3447
I42
tp3448
a(S'membership'
p3449
I42
tp3450
a(S'foreign'
p3451
I42
tp3452
a(S'ocean'
p3453
I42
tp3454
a(S'buying'
p3455
I42
tp3456
a(S'gr'
p3457
I42
tp3458
a(S'rights'
p3459
I42
tp3460
a(S'billion'
p3461
I42
tp3462
a(S'maybe'
p3463
I42
tp3464
a(S'entity'
p3465
I42
tp3466
a(S'pep'
p3467
I42
tp3468
a(S'invest'
p3469
I42
tp3470
a(S'gra'
p3471
I42
tp3472
a(S'heidi'
p3473
I42
tp3474
a(S'transmission'
p3475
I42
tp3476
a(S'true'
p3477
I42
tp3478
a(S'hernandez'
p3479
I42
tp3480
a(S'asset'
p3481
I42
tp3482
a(S'mb'
p3483
I42
tp3484
a(S'jeffrey'
p3485
I42
tp3486
a(S'outside'
p3487
I42
tp3488
a(S'developed'
p3489
I42
tp3490
a(S'mtbe'
p3491
I42
tp3492
a(S'san'
p3493
I42
tp3494
a(S'legislation'
p3495
I42
tp3496
a(S'mtr'
p3497
I42
tp3498
a(S'baseload'
p3499
I42
tp3500
a(S'children'
p3501
I42
tp3502
a(S'brandywine'
p3503
I42
tp3504
a(S'clean'
p3505
I42
tp3506
a(S'hull'
p3507
I42
tp3508
a(S'cartwheel'
p3509
I42
tp3510
a(S'leader'
p3511
I42
tp3512
a(S'bottom'
p3513
I41
tp3514
a(S'seaman'
p3515
I41
tp3516
a(S'budget'
p3517
I41
tp3518
a(S'wed'
p3519
I41
tp3520
a(S'payments'
p3521
I41
tp3522
a(S'alternative'
p3523
I41
tp3524
a(S'revisions'
p3525
I41
tp3526
a(S'dealers'
p3527
I41
tp3528
a(S'exception'
p3529
I41
tp3530
a(S'window'
p3531
I41
tp3532
a(S'pipelines'
p3533
I41
tp3534
a(S'rev'
p3535
I41
tp3536
a(S'example'
p3537
I41
tp3538
a(S'guess'
p3539
I41
tp3540
a(S'standard'
p3541
I41
tp3542
a(S'bammel'
p3543
I41
tp3544
a(S'guadalupe'
p3545
I41
tp3546
a(S'kenneth'
p3547
I41
tp3548
a(S'topica'
p3549
I41
tp3550
a(S'pathing'
p3551
I41
tp3552
a(S'equity'
p3553
I41
tp3554
a(S'braband'
p3555
I41
tp3556
a(S'claims'
p3557
I41
tp3558
a(S'annual'
p3559
I41
tp3560
a(S'lines'
p3561
I41
tp3562
a(S'merchant'
p3563
I41
tp3564
a(S'wallis'
p3565
I41
tp3566
a(S'zivley'
p3567
I41
tp3568
a(S'juno'
p3569
I41
tp3570
a(S'pull'
p3571
I40
tp3572
a(S'contents'
p3573
I40
tp3574
a(S'investments'
p3575
I40
tp3576
a(S'yes'
p3577
I40
tp3578
a(S'proposed'
p3579
I40
tp3580
a(S'edition'
p3581
I40
tp3582
a(S'en'
p3583
I40
tp3584
a(S'concern'
p3585
I40
tp3586
a(S'hr'
p3587
I40
tp3588
a(S'calendar'
p3589
I40
tp3590
a(S'throughout'
p3591
I40
tp3592
a(S'giving'
p3593
I40
tp3594
a(S'inherent'
p3595
I40
tp3596
a(S'usb'
p3597
I40
tp3598
a(S'rm'
p3599
I40
tp3600
a(S'participate'
p3601
I40
tp3602
a(S'cable'
p3603
I40
tp3604
a(S'morgan'
p3605
I40
tp3606
a(S'checked'
p3607
I40
tp3608
a(S'enquiries'
p3609
I40
tp3610
a(S'deer'
p3611
I40
tp3612
a(S'myself'
p3613
I40
tp3614
a(S'trip'
p3615
I40
tp3616
a(S'alt'
p3617
I40
tp3618
a(S'six'
p3619
I40
tp3620
a(S'edmondson'
p3621
I40
tp3622
a(S'darial'
p3623
I40
tp3624
a(S'speculative'
p3625
I40
tp3626
a(S'build'
p3627
I40
tp3628
a(S'tammy'
p3629
I40
tp3630
a(S'telephone'
p3631
I40
tp3632
a(S'fat'
p3633
I40
tp3634
a(S'moving'
p3635
I40
tp3636
a(S'reliant'
p3637
I40
tp3638
a(S'intent'
p3639
I39
tp3640
a(S'chad'
p3641
I39
tp3642
a(S'airmail'
p3643
I39
tp3644
a(S'dvd'
p3645
I39
tp3646
a(S'policy'
p3647
I39
tp3648
a(S'minimum'
p3649
I39
tp3650
a(S'texoma'
p3651
I39
tp3652
a(S'positive'
p3653
I39
tp3654
a(S'sea'
p3655
I39
tp3656
a(S'avoid'
p3657
I39
tp3658
a(S'stephen'
p3659
I39
tp3660
a(S'austin'
p3661
I39
tp3662
a(S'isn'
p3663
I39
tp3664
a(S'changing'
p3665
I39
tp3666
a(S'resulting'
p3667
I39
tp3668
a(S'evening'
p3669
I39
tp3670
a(S'launch'
p3671
I39
tp3672
a(S'conflict'
p3673
I39
tp3674
a(S'prepared'
p3675
I39
tp3676
a(S'matt'
p3677
I39
tp3678
a(S'cowboy'
p3679
I39
tp3680
a(S'stand'
p3681
I39
tp3682
a(S'gets'
p3683
I39
tp3684
a(S'hol'
p3685
I39
tp3686
a(S'quantity'
p3687
I39
tp3688
a(S'haven'
p3689
I39
tp3690
a(S'commission'
p3691
I39
tp3692
a(S'uae'
p3693
I39
tp3694
a(S'citibank'
p3695
I39
tp3696
a(S'programs'
p3697
I39
tp3698
a(S'concerning'
p3699
I39
tp3700
a(S'front'
p3701
I39
tp3702
a(S'effect'
p3703
I39
tp3704
a(S'strategy'
p3705
I39
tp3706
a(S'manual'
p3707
I39
tp3708
a(S'finally'
p3709
I39
tp3710
a(S'built'
p3711
I39
tp3712
a(S'chief'
p3713
I39
tp3714
a(S'jaquet'
p3715
I39
tp3716
a(S'executive'
p3717
I39
tp3718
a(S'reduction'
p3719
I39
tp3720
a(S'thousands'
p3721
I39
tp3722
a(S'terminated'
p3723
I38
tp3724
a(S'tess'
p3725
I38
tp3726
a(S'hplr'
p3727
I38
tp3728
a(S'eel'
p3729
I38
tp3730
a(S'detail'
p3731
I38
tp3732
a(S'sum'
p3733
I38
tp3734
a(S'leading'
p3735
I38
tp3736
a(S'pleased'
p3737
I38
tp3738
a(S'weather'
p3739
I38
tp3740
a(S'child'
p3741
I38
tp3742
a(S'harris'
p3743
I38
tp3744
a(S'adjusted'
p3745
I38
tp3746
a(S'sheet'
p3747
I38
tp3748
a(S'prepare'
p3749
I38
tp3750
a(S'quote'
p3751
I38
tp3752
a(S'guaranteed'
p3753
I38
tp3754
a(S'ga'
p3755
I38
tp3756
a(S'cellpadding'
p3757
I38
tp3758
a(S'christy'
p3759
I38
tp3760
a(S'idea'
p3761
I38
tp3762
a(S'crow'
p3763
I38
tp3764
a(S'crosstex'
p3765
I38
tp3766
a(S'warning'
p3767
I38
tp3768
a(S'issued'
p3769
I38
tp3770
a(S'cross'
p3771
I38
tp3772
a(S'owe'
p3773
I38
tp3774
a(S'venturatos'
p3775
I38
tp3776
a(S'availabilities'
p3777
I38
tp3778
a(S'award'
p3779
I38
tp3780
a(S'advance'
p3781
I38
tp3782
a(S'min'
p3783
I38
tp3784
a(S'announce'
p3785
I38
tp3786
a(S'hotel'
p3787
I38
tp3788
a(S'pertaining'
p3789
I38
tp3790
a(S'griffin'
p3791
I38
tp3792
a(S'itoy'
p3793
I38
tp3794
a(S'schedulers'
p3795
I38
tp3796
a(S'whom'
p3797
I38
tp3798
a(S'operational'
p3799
I38
tp3800
a(S'gottlob'
p3801
I37
tp3802
a(S'emirates'
p3803
I37
tp3804
a(S'individuals'
p3805
I37
tp3806
a(S'stuff'
p3807
I37
tp3808
a(S'daniel'
p3809
I37
tp3810
a(S'approx'
p3811
I37
tp3812
a(S'tina'
p3813
I37
tp3814
a(S'construed'
p3815
I37
tp3816
a(S'beck'
p3817
I37
tp3818
a(S'description'
p3819
I37
tp3820
a(S'port'
p3821
I37
tp3822
a(S'ferc'
p3823
I37
tp3824
a(S'managing'
p3825
I37
tp3826
a(S'zonedubai'
p3827
I37
tp3828
a(S'aeor'
p3829
I37
tp3830
a(S'overnight'
p3831
I37
tp3832
a(S'glover'
p3833
I37
tp3834
a(S'luck'
p3835
I37
tp3836
a(S'carry'
p3837
I37
tp3838
a(S'dates'
p3839
I37
tp3840
a(S'broker'
p3841
I37
tp3842
a(S'town'
p3843
I37
tp3844
a(S'charles'
p3845
I37
tp3846
a(S'except'
p3847
I37
tp3848
a(S'eff'
p3849
I37
tp3850
a(S'clickathome'
p3851
I37
tp3852
a(S'looked'
p3853
I37
tp3854
a(S'column'
p3855
I37
tp3856
a(S'revenues'
p3857
I37
tp3858
a(S'customerservice'
p3859
I37
tp3860
a(S'alert'
p3861
I37
tp3862
a(S'licensed'
p3863
I37
tp3864
a(S'welcome'
p3865
I37
tp3866
a(S'cal'
p3867
I37
tp3868
a(S'heart'
p3869
I37
tp3870
a(S'otherwise'
p3871
I37
tp3872
a(S'step'
p3873
I37
tp3874
a(S'park'
p3875
I37
tp3876
a(S'materia'
p3877
I37
tp3878
a(S'games'
p3879
I37
tp3880
a(S'dudley'
p3881
I37
tp3882
a(S'seller'
p3883
I37
tp3884
a(S'traders'
p3885
I37
tp3886
a(S'stretch'
p3887
I37
tp3888
a(S'summer'
p3889
I37
tp3890
a(S'robin'
p3891
I37
tp3892
a(S'charges'
p3893
I37
tp3894
a(S'main'
p3895
I37
tp3896
a(S'quantities'
p3897
I37
tp3898
a(S'generation'
p3899
I37
tp3900
a(S'tech'
p3901
I36
tp3902
a(S'villarreal'
p3903
I36
tp3904
a(S'realize'
p3905
I36
tp3906
a(S'ordering'
p3907
I36
tp3908
a(S'equipment'
p3909
I36
tp3910
a(S'outlook'
p3911
I36
tp3912
a(S'sexual'
p3913
I36
tp3914
a(S'listbot'
p3915
I36
tp3916
a(S'edit'
p3917
I36
tp3918
a(S'reeves'
p3919
I36
tp3920
a(S'contained'
p3921
I36
tp3922
a(S'benoit'
p3923
I36
tp3924
a(S'vaughn'
p3925
I36
tp3926
a(S'cold'
p3927
I36
tp3928
a(S'eb'
p3929
I36
tp3930
a(S'ahead'
p3931
I36
tp3932
a(S'deciding'
p3933
I36
tp3934
a(S'delete'
p3935
I36
tp3936
a(S'finance'
p3937
I36
tp3938
a(S'behind'
p3939
I36
tp3940
a(S'island'
p3941
I36
tp3942
a(S'miss'
p3943
I36
tp3944
a(S'leslie'
p3945
I36
tp3946
a(S'eiben'
p3947
I36
tp3948
a(S'se'
p3949
I36
tp3950
a(S'post'
p3951
I36
tp3952
a(S'forms'
p3953
I36
tp3954
a(S'lon'
p3955
I36
tp3956
a(S'tailgate'
p3957
I36
tp3958
a(S'org'
p3959
I36
tp3960
a(S'adjustments'
p3961
I36
tp3962
a(S'simple'
p3963
I36
tp3964
a(S'saw'
p3965
I36
tp3966
a(S'patti'
p3967
I36
tp3968
a(S'tools'
p3969
I36
tp3970
a(S'law'
p3971
I36
tp3972
a(S'double'
p3973
I36
tp3974
a(S'makes'
p3975
I35
tp3976
a(S'pressure'
p3977
I35
tp3978
a(S'indicated'
p3979
I35
tp3980
a(S'mcmills'
p3981
I35
tp3982
a(S'pool'
p3983
I35
tp3984
a(S'links'
p3985
I35
tp3986
a(S'sites'
p3987
I35
tp3988
a(S'knowledge'
p3989
I35
tp3990
a(S'female'
p3991
I35
tp3992
a(S'holiday'
p3993
I35
tp3994
a(S'successful'
p3995
I35
tp3996
a(S'detailed'
p3997
I35
tp3998
a(S'mazowita'
p3999
I35
tp4000
a(S'foot'
p4001
I35
tp4002
a(S'auto'
p4003
I35
tp4004
a(S'advisor'
p4005
I35
tp4006
a(S'yvette'
p4007
I35
tp4008
a(S'region'
p4009
I35
tp4010
a(S'screen'
p4011
I35
tp4012
a(S'unable'
p4013
I35
tp4014
a(S'brent'
p4015
I35
tp4016
a(S'helps'
p4017
I35
tp4018
a(S'meredith'
p4019
I35
tp4020
a(S'cook'
p4021
I35
tp4022
a(S'kathryn'
p4023
I35
tp4024
a(S'adjust'
p4025
I35
tp4026
a(S'river'
p4027
I35
tp4028
a(S'bryce'
p4029
I35
tp4030
a(S'charged'
p4031
I35
tp4032
a(S'contain'
p4033
I35
tp4034
a(S'otc'
p4035
I35
tp4036
a(S'dial'
p4037
I35
tp4038
a(S'outages'
p4039
I35
tp4040
a(S'mailings'
p4041
I34
tp4042
a(S'kids'
p4043
I34
tp4044
a(S'fix'
p4045
I34
tp4046
a(S'corrected'
p4047
I34
tp4048
a(S'indicating'
p4049
I34
tp4050
a(S'decision'
p4051
I34
tp4052
a(S'conference'
p4053
I34
tp4054
a(S'reliable'
p4055
I34
tp4056
a(S'levels'
p4057
I34
tp4058
a(S'drug'
p4059
I34
tp4060
a(S'shown'
p4061
I34
tp4062
a(S'husband'
p4063
I34
tp4064
a(S'designed'
p4065
I34
tp4066
a(S'cindy'
p4067
I34
tp4068
a(S'grow'
p4069
I34
tp4070
a(S'search'
p4071
I34
tp4072
a(S'mo'
p4073
I34
tp4074
a(S'meetings'
p4075
I34
tp4076
a(S'tv'
p4077
I34
tp4078
a(S'tr'
p4079
I34
tp4080
a(S'measurement'
p4081
I34
tp4082
a(S'tri'
p4083
I34
tp4084
a(S'payroll'
p4085
I34
tp4086
a(S'interview'
p4087
I34
tp4088
a(S'regular'
p4089
I34
tp4090
a(S'coast'
p4091
I34
tp4092
a(S'severson'
p4093
I34
tp4094
a(S'allocations'
p4095
I34
tp4096
a(S'wireless'
p4097
I34
tp4098
a(S'environment'
p4099
I34
tp4100
a(S'seems'
p4101
I34
tp4102
a(S'greif'
p4103
I34
tp4104
a(S'consumers'
p4105
I34
tp4106
a(S'urgent'
p4107
I34
tp4108
a(S'rock'
p4109
I34
tp4110
a(S'particular'
p4111
I34
tp4112
a(S'benefits'
p4113
I34
tp4114
a(S'copies'
p4115
I34
tp4116
a(S'art'
p4117
I34
tp4118
a(S'intend'
p4119
I33
tp4120
a(S'avails'
p4121
I33
tp4122
a(S'acquire'
p4123
I33
tp4124
a(S'likely'
p4125
I33
tp4126
a(S'cilco'
p4127
I33
tp4128
a(S'managers'
p4129
I33
tp4130
a(S'happening'
p4131
I33
tp4132
a(S'internationa'
p4133
I33
tp4134
a(S'pcx'
p4135
I33
tp4136
a(S'gmt'
p4137
I33
tp4138
a(S'liquids'
p4139
I33
tp4140
a(S'ce'
p4141
I33
tp4142
a(S'da'
p4143
I33
tp4144
a(S'mmbtus'
p4145
I33
tp4146
a(S'fully'
p4147
I33
tp4148
a(S'charset'
p4149
I33
tp4150
a(S'killing'
p4151
I33
tp4152
a(S'significant'
p4153
I33
tp4154
a(S'lottery'
p4155
I33
tp4156
a(S'timing'
p4157
I33
tp4158
a(S'verdana'
p4159
I33
tp4160
a(S'studio'
p4161
I33
tp4162
a(S'vicodin'
p4163
I33
tp4164
a(S'speckels'
p4165
I33
tp4166
a(S'midstream'
p4167
I33
tp4168
a(S'flynn'
p4169
I33
tp4170
a(S'mack'
p4171
I33
tp4172
a(S'preparation'
p4173
I33
tp4174
a(S'personnel'
p4175
I33
tp4176
a(S'eye'
p4177
I33
tp4178
a(S'mix'
p4179
I33
tp4180
a(S'multi'
p4181
I33
tp4182
a(S'vice'
p4183
I33
tp4184
a(S'sit'
p4185
I33
tp4186
a(S'pager'
p4187
I33
tp4188
a(S'fares'
p4189
I33
tp4190
a(S'structure'
p4191
I33
tp4192
a(S'parent'
p4193
I33
tp4194
a(S'usd'
p4195
I33
tp4196
a(S'administration'
p4197
I33
tp4198
a(S'spencer'
p4199
I33
tp4200
a(S'closed'
p4201
I33
tp4202
a(S'chevron'
p4203
I32
tp4204
a(S'choice'
p4205
I32
tp4206
a(S'benedict'
p4207
I32
tp4208
a(S'self'
p4209
I32
tp4210
a(S'taxes'
p4211
I32
tp4212
a(S'drop'
p4213
I32
tp4214
a(S'pictures'
p4215
I32
tp4216
a(S'ngo'
p4217
I32
tp4218
a(S'assurance'
p4219
I32
tp4220
a(S'acts'
p4221
I32
tp4222
a(S'teams'
p4223
I32
tp4224
a(S'dolphin'
p4225
I32
tp4226
a(S'electric'
p4227
I32
tp4228
a(S'thus'
p4229
I32
tp4230
a(S'proven'
p4231
I32
tp4232
a(S'ad'
p4233
I32
tp4234
a(S'davis'
p4235
I32
tp4236
a(S'treatment'
p4237
I32
tp4238
a(S'joanie'
p4239
I32
tp4240
a(S'pretty'
p4241
I32
tp4242
a(S'identify'
p4243
I32
tp4244
a(S'notification'
p4245
I32
tp4246
a(S'areas'
p4247
I32
tp4248
a(S'wc'
p4249
I32
tp4250
a(S'producers'
p4251
I32
tp4252
a(S'largest'
p4253
I32
tp4254
a(S'previous'
p4255
I32
tp4256
a(S'ti'
p4257
I32
tp4258
a(S'rebecca'
p4259
I32
tp4260
a(S'quit'
p4261
I32
tp4262
a(S'lesson'
p4263
I32
tp4264
a(S'sdsnom'
p4265
I32
tp4266
a(S'edu'
p4267
I32
tp4268
a(S'swift'
p4269
I32
tp4270
a(S'player'
p4271
I32
tp4272
a(S'waste'
p4273
I32
tp4274
a(S'graphics'
p4275
I32
tp4276
a(S'htm'
p4277
I32
tp4278
a(S'addressed'
p4279
I32
tp4280
a(S'competitive'
p4281
I32
tp4282
a(S'premium'
p4283
I32
tp4284
a(S'sds'
p4285
I32
tp4286
a(S'unless'
p4287
I32
tp4288
a(S'charlene'
p4289
I32
tp4290
a(S'incorrect'
p4291
I32
tp4292
a(S'separate'
p4293
I32
tp4294
a(S'allows'
p4295
I32
tp4296
a(S'hit'
p4297
I32
tp4298
a(S'intraday'
p4299
I32
tp4300
a(S'netco'
p4301
I32
tp4302
a(S'impacted'
p4303
I31
tp4304
a(S'locations'
p4305
I31
tp4306
a(S'nomad'
p4307
I31
tp4308
a(S'tonight'
p4309
I31
tp4310
a(S'diligence'
p4311
I31
tp4312
a(S'prayer'
p4313
I31
tp4314
a(S'reviewed'
p4315
I31
tp4316
a(S'powerful'
p4317
I31
tp4318
a(S'education'
p4319
I31
tp4320
a(S'rivers'
p4321
I31
tp4322
a(S'websites'
p4323
I31
tp4324
a(S'joe'
p4325
I31
tp4326
a(S'solicitation'
p4327
I31
tp4328
a(S'predictions'
p4329
I31
tp4330
a(S'ft'
p4331
I31
tp4332
a(S'completion'
p4333
I31
tp4334
a(S'language'
p4335
I31
tp4336
a(S'desks'
p4337
I31
tp4338
a(S'diamond'
p4339
I31
tp4340
a(S'resuits'
p4341
I31
tp4342
a(S'banking'
p4343
I31
tp4344
a(S'posted'
p4345
I31
tp4346
a(S'zeroed'
p4347
I31
tp4348
a(S'medication'
p4349
I31
tp4350
a(S'log'
p4351
I31
tp4352
a(S'properly'
p4353
I31
tp4354
a(S'completely'
p4355
I31
tp4356
a(S'street'
p4357
I31
tp4358
a(S'explode'
p4359
I31
tp4360
a(S'exercise'
p4361
I31
tp4362
a(S'decrease'
p4363
I31
tp4364
a(S'proper'
p4365
I31
tp4366
a(S'sports'
p4367
I31
tp4368
a(S'actions'
p4369
I31
tp4370
a(S'lyondell'
p4371
I31
tp4372
a(S'anywhere'
p4373
I31
tp4374
a(S'billing'
p4375
I31
tp4376
a(S'alone'
p4377
I31
tp4378
a(S'noon'
p4379
I31
tp4380
a(S'consider'
p4381
I31
tp4382
a(S'certificate'
p4383
I31
tp4384
a(S'vegas'
p4385
I31
tp4386
a(S'club'
p4387
I31
tp4388
a(S'automatically'
p4389
I31
tp4390
a(S'whatever'
p4391
I31
tp4392
a(S'filings'
p4393
I31
tp4394
a(S'specials'
p4395
I31
tp4396
a(S'affordable'
p4397
I31
tp4398
a(S'fyi'
p4399
I31
tp4400
a(S'intra'
p4401
I31
tp4402
a(S'rick'
p4403
I30
tp4404
a(S'russ'
p4405
I30
tp4406
a(S'transco'
p4407
I30
tp4408
a(S'guide'
p4409
I30
tp4410
a(S'entertainment'
p4411
I30
tp4412
a(S'hector'
p4413
I30
tp4414
a(S'presently'
p4415
I30
tp4416
a(S'rom'
p4417
I30
tp4418
a(S'joint'
p4419
I30
tp4420
a(S'torch'
p4421
I30
tp4422
a(S'competition'
p4423
I30
tp4424
a(S'dell'
p4425
I30
tp4426
a(S'affected'
p4427
I30
tp4428
a(S'accountant'
p4429
I30
tp4430
a(S'opm'
p4431
I30
tp4432
a(S'assume'
p4433
I30
tp4434
a(S'killed'
p4435
I30
tp4436
a(S'hottlist'
p4437
I30
tp4438
a(S'spend'
p4439
I30
tp4440
a(S'aquila'
p4441
I30
tp4442
a(S'functionality'
p4443
I30
tp4444
a(S'scheduler'
p4445
I30
tp4446
a(S'settlement'
p4447
I30
tp4448
a(S'blank'
p4449
I30
tp4450
a(S'pi'
p4451
I30
tp4452
a(S'molly'
p4453
I30
tp4454
a(S'solid'
p4455
I30
tp4456
a(S'organization'
p4457
I30
tp4458
a(S'son'
p4459
I30
tp4460
a(S'discovered'
p4461
I30
tp4462
a(S'responsibilities'
p4463
I30
tp4464
a(S'meant'
p4465
I30
tp4466
a(S'entries'
p4467
I30
tp4468
a(S'cart'
p4469
I30
tp4470
a(S'rules'
p4471
I30
tp4472
a(S'valadez'
p4473
I30
tp4474
a(S'briley'
p4475
I30
tp4476
a(S'deposit'
p4477
I30
tp4478
a(S'materially'
p4479
I30
tp4480
a(S'purpose'
p4481
I30
tp4482
a(S'intercompany'
p4483
I30
tp4484
a(S'offices'
p4485
I30
tp4486
a(S'yap'
p4487
I30
tp4488
a(S'rolled'
p4489
I30
tp4490
a(S'header'
p4491
I30
tp4492
a(S'soma'
p4493
I30
tp4494
a(S'nat'
p4495
I30
tp4496
a(S'resolution'
p4497
I30
tp4498
a(S'noted'
p4499
I30
tp4500
a(S'often'
p4501
I30
tp4502
a(S'jason'
p4503
I30
tp4504
a(S'analysts'
p4505
I30
tp4506
a(S'anderson'
p4507
I30
tp4508
a(S'tim'
p4509
I30
tp4510
a(S'apple'
p4511
I30
tp4512
a(S'york'
p4513
I30
tp4514
a(S'atleast'
p4515
I30
tp4516
a(S'pulled'
p4517
I29
tp4518
a(S'operation'
p4519
I29
tp4520
a(S'marta'
p4521
I29
tp4522
a(S'hundred'
p4523
I29
tp4524
a(S'pack'
p4525
I29
tp4526
a(S'foresee'
p4527
I29
tp4528
a(S'although'
p4529
I29
tp4530
a(S'movies'
p4531
I29
tp4532
a(S'reached'
p4533
I29
tp4534
a(S'setting'
p4535
I29
tp4536
a(S'written'
p4537
I29
tp4538
a(S'redmond'
p4539
I29
tp4540
a(S'victoria'
p4541
I29
tp4542
a(S'gone'
p4543
I29
tp4544
a(S'official'
p4545
I29
tp4546
a(S'mcgee'
p4547
I29
tp4548
a(S'requests'
p4549
I29
tp4550
a(S'bed'
p4551
I29
tp4552
a(S'hp'
p4553
I29
tp4554
a(S'chemical'
p4555
I29
tp4556
a(S'tool'
p4557
I29
tp4558
a(S'heal'
p4559
I29
tp4560
a(S'strictly'
p4561
I29
tp4562
a(S'units'
p4563
I29
tp4564
a(S'shareholder'
p4565
I29
tp4566
a(S'table'
p4567
I29
tp4568
a(S'feature'
p4569
I29
tp4570
a(S'rr'
p4571
I29
tp4572
a(S'inside'
p4573
I29
tp4574
a(S'sr'
p4575
I29
tp4576
a(S'resource'
p4577
I29
tp4578
a(S'beliefs'
p4579
I29
tp4580
a(S'tongue'
p4581
I29
tp4582
a(S'protocol'
p4583
I29
tp4584
a(S'reviews'
p4585
I29
tp4586
a(S'larry'
p4587
I29
tp4588
a(S'lease'
p4589
I29
tp4590
a(S'apparently'
p4591
I29
tp4592
a(S'proposal'
p4593
I29
tp4594
a(S'trust'
p4595
I29
tp4596
a(S'llc'
p4597
I29
tp4598
a(S'commodity'
p4599
I29
tp4600
a(S'adonis'
p4601
I29
tp4602
a(S'generated'
p4603
I29
tp4604
a(S'cellspacing'
p4605
I29
tp4606
a(S'continued'
p4607
I29
tp4608
a(S'rule'
p4609
I29
tp4610
a(S'released'
p4611
I29
tp4612
a(S'couldn'
p4613
I29
tp4614
a(S'external'
p4615
I29
tp4616
a(S'lateral'
p4617
I29
tp4618
a(S'girl'
p4619
I29
tp4620
a(S'hillary'
p4621
I29
tp4622
a(S'compensation'
p4623
I29
tp4624
a(S'ram'
p4625
I29
tp4626
a(S'laptop'
p4627
I29
tp4628
a(S'master'
p4629
I28
tp4630
a(S'verified'
p4631
I28
tp4632
a(S'respective'
p4633
I28
tp4634
a(S'comstock'
p4635
I28
tp4636
a(S'understands'
p4637
I28
tp4638
a(S'hand'
p4639
I28
tp4640
a(S'humble'
p4641
I28
tp4642
a(S'producing'
p4643
I28
tp4644
a(S'ecom'
p4645
I28
tp4646
a(S'lists'
p4647
I28
tp4648
a(S'advises'
p4649
I28
tp4650
a(S'conoco'
p4651
I28
tp4652
a(S'sean'
p4653
I28
tp4654
a(S'standards'
p4655
I28
tp4656
a(S'gains'
p4657
I28
tp4658
a(S'wasn'
p4659
I28
tp4660
a(S'pics'
p4661
I28
tp4662
a(S'dl'
p4663
I28
tp4664
a(S'em'
p4665
I28
tp4666
a(S'promotion'
p4667
I28
tp4668
a(S'developing'
p4669
I28
tp4670
a(S'documentation'
p4671
I28
tp4672
a(S'elsa'
p4673
I28
tp4674
a(S'consultation'
p4675
I28
tp4676
a(S'dated'
p4677
I28
tp4678
a(S'den'
p4679
I28
tp4680
a(S'putting'
p4681
I28
tp4682
a(S'eight'
p4683
I28
tp4684
a(S'henderson'
p4685
I28
tp4686
a(S'hughes'
p4687
I28
tp4688
a(S'woman'
p4689
I28
tp4690
a(S'design'
p4691
I28
tp4692
a(S'helpful'
p4693
I28
tp4694
a(S'negotiations'
p4695
I28
tp4696
a(S'factor'
p4697
I28
tp4698
a(S'richmond'
p4699
I28
tp4700
a(S'hrs'
p4701
I28
tp4702
a(S'brad'
p4703
I28
tp4704
a(S'xl'
p4705
I28
tp4706
a(S'cannon'
p4707
I28
tp4708
a(S'anticipates'
p4709
I28
tp4710
a(S'brokered'
p4711
I28
tp4712
a(S'adult'
p4713
I28
tp4714
a(S'max'
p4715
I28
tp4716
a(S'gateway'
p4717
I28
tp4718
a(S'controls'
p4719
I28
tp4720
a(S'enhanced'
p4721
I28
tp4722
a(S'sofftwaares'
p4723
I28
tp4724
a(S'julia'
p4725
I28
tp4726
a(S'hospital'
p4727
I28
tp4728
a(S'ffffff'
p4729
I28
tp4730
a(S'releases'
p4731
I28
tp4732
a(S'college'
p4733
I28
tp4734
a(S'holdings'
p4735
I28
tp4736
a(S'distribute'
p4737
I28
tp4738
a(S'driver'
p4739
I28
tp4740
a(S'imceanotes'
p4741
I28
tp4742
a(S'sarco'
p4743
I28
tp4744
a(S'garrick'
p4745
I28
tp4746
a(S'craig'
p4747
I28
tp4748
a(S'mcloughlin'
p4749
I28
tp4750
a(S'easily'
p4751
I28
tp4752
a(S'treated'
p4753
I28
tp4754
a(S'itself'
p4755
I28
tp4756
a(S'trochta'
p4757
I28
tp4758
a(S'conversion'
p4759
I28
tp4760
a(S'worksheet'
p4761
I28
tp4762
a(S'sheri'
p4763
I28
tp4764
a(S'locker'
p4765
I27
tp4766
a(S'drilling'
p4767
I27
tp4768
a(S'entering'
p4769
I27
tp4770
a(S'caused'
p4771
I27
tp4772
a(S'bretz'
p4773
I27
tp4774
a(S'baby'
p4775
I27
tp4776
a(S'maximum'
p4777
I27
tp4778
a(S'anytime'
p4779
I27
tp4780
a(S'wiil'
p4781
I27
tp4782
a(S'sample'
p4783
I27
tp4784
a(S'expensive'
p4785
I27
tp4786
a(S'cherry'
p4787
I27
tp4788
a(S'larger'
p4789
I27
tp4790
a(S'silver'
p4791
I27
tp4792
a(S'dealer'
p4793
I27
tp4794
a(S'thinks'
p4795
I27
tp4796
a(S'owned'
p4797
I27
tp4798
a(S'function'
p4799
I27
tp4800
a(S'adding'
p4801
I27
tp4802
a(S'requires'
p4803
I27
tp4804
a(S'providers'
p4805
I27
tp4806
a(S'dawn'
p4807
I27
tp4808
a(S'martinez'
p4809
I27
tp4810
a(S'ls'
p4811
I27
tp4812
a(S'announces'
p4813
I27
tp4814
a(S'hundreds'
p4815
I27
tp4816
a(S'provider'
p4817
I27
tp4818
a(S'pa'
p4819
I27
tp4820
a(S'easier'
p4821
I27
tp4822
a(S'login'
p4823
I27
tp4824
a(S'carbide'
p4825
I27
tp4826
a(S'reliance'
p4827
I27
tp4828
a(S'beach'
p4829
I27
tp4830
a(S'offshore'
p4831
I27
tp4832
a(S'louis'
p4833
I27
tp4834
a(S'aim'
p4835
I27
tp4836
a(S'war'
p4837
I27
tp4838
a(S'forever'
p4839
I27
tp4840
a(S'variance'
p4841
I27
tp4842
a(S'happened'
p4843
I27
tp4844
a(S'nommensen'
p4845
I27
tp4846
a(S'triple'
p4847
I27
tp4848
a(S'gathered'
p4849
I27
tp4850
a(S'partnership'
p4851
I27
tp4852
a(S'writeoff'
p4853
I27
tp4854
a(S'dulce'
p4855
I27
tp4856
a(S'coordinate'
p4857
I27
tp4858
a(S'otcbb'
p4859
I27
tp4860
a(S'todd'
p4861
I27
tp4862
a(S'addresses'
p4863
I27
tp4864
a(S'thoughts'
p4865
I27
tp4866
a(S'mining'
p4867
I27
tp4868
a(S'advanced'
p4869
I27
tp4870
a(S'season'
p4871
I27
tp4872
a(S'agua'
p4873
I27
tp4874
a(S'extension'
p4875
I27
tp4876
a(S'pending'
p4877
I27
tp4878
a(S'exact'
p4879
I26
tp4880
a(S'turned'
p4881
I26
tp4882
a(S'confidence'
p4883
I26
tp4884
a(S'protection'
p4885
I26
tp4886
a(S'coffey'
p4887
I26
tp4888
a(S'electronic'
p4889
I26
tp4890
a(S'franklin'
p4891
I26
tp4892
a(S'appreciated'
p4893
I26
tp4894
a(S'illustrator'
p4895
I26
tp4896
a(S'safety'
p4897
I26
tp4898
a(S'buddy'
p4899
I26
tp4900
a(S'amazing'
p4901
I26
tp4902
a(S'okay'
p4903
I26
tp4904
a(S'africa'
p4905
I26
tp4906
a(S'mailbox'
p4907
I26
tp4908
a(S'oem'
p4909
I26
tp4910
a(S'ehronline'
p4911
I26
tp4912
a(S'invoiced'
p4913
I26
tp4914
a(S'flag'
p4915
I26
tp4916
a(S'nick'
p4917
I26
tp4918
a(S'nice'
p4919
I26
tp4920
a(S'romeo'
p4921
I26
tp4922
a(S'opinions'
p4923
I26
tp4924
a(S'sender'
p4925
I26
tp4926
a(S'keeping'
p4927
I26
tp4928
a(S'heads'
p4929
I26
tp4930
a(S'determined'
p4931
I26
tp4932
a(S'bar'
p4933
I26
tp4934
a(S'count'
p4935
I26
tp4936
a(S'jerry'
p4937
I26
tp4938
a(S'mails'
p4939
I26
tp4940
a(S'glad'
p4941
I26
tp4942
a(S'court'
p4943
I26
tp4944
a(S'forwarding'
p4945
I26
tp4946
a(S'touch'
p4947
I26
tp4948
a(S'hesitate'
p4949
I26
tp4950
a(S'noticed'
p4951
I26
tp4952
a(S'urbanek'
p4953
I26
tp4954
a(S'ii'
p4955
I26
tp4956
a(S'venture'
p4957
I26
tp4958
a(S'remote'
p4959
I26
tp4960
a(S'blood'
p4961
I26
tp4962
a(S'technoiogies'
p4963
I26
tp4964
a(S'brennan'
p4965
I26
tp4966
a(S'compressor'
p4967
I26
tp4968
a(S'reasons'
p4969
I26
tp4970
a(S'loading'
p4971
I26
tp4972
a(S'marlin'
p4973
I26
tp4974
a(S'payback'
p4975
I26
tp4976
a(S'oba'
p4977
I26
tp4978
a(S'upgrade'
p4979
I26
tp4980
a(S'handled'
p4981
I26
tp4982
a(S'procedures'
p4983
I26
tp4984
a(S'processed'
p4985
I26
tp4986
a(S'seem'
p4987
I26
tp4988
a(S'und'
p4989
I26
tp4990
a(S'responsibility'
p4991
I26
tp4992
a(S'doctors'
p4993
I26
tp4994
a(S'networks'
p4995
I26
tp4996
a(S'darron'
p4997
I26
tp4998
a(S'heather'
p4999
I26
tp5000
a(S'shipment'
p5001
I26
tp5002
a(S'finding'
p5003
I26
tp5004
a(S'creating'
p5005
I26
tp5006
a(S'brought'
p5007
I26
tp5008
a(S'att'
p5009
I26
tp5010
a(S'nascar'
p5011
I26
tp5012
a(S'tier'
p5013
I26
tp5014
a(S'btu'
p5015
I26
tp5016
a(S'abdv'
p5017
I26
tp5018
a(S'deadline'
p5019
I26
tp5020
a(S'egm'
p5021
I26
tp5022
a(S'block'
p5023
I26
tp5024
a(S'cell'
p5025
I26
tp5026
a(S'connected'
p5027
I26
tp5028
a(S'utility'
p5029
I26
tp5030
a(S'portion'
p5031
I26
tp5032
a(S'profiles'
p5033
I26
tp5034
a(S'couid'
p5035
I26
tp5036
a(S'executed'
p5037
I26
tp5038
a(S'passed'
p5039
I26
tp5040
a(S'barrett'
p5041
I26
tp5042
a(S'installed'
p5043
I25
tp5044
a(S'vol'
p5045
I25
tp5046
a(S'develop'
p5047
I25
tp5048
a(S'url'
p5049
I25
tp5050
a(S'smoking'
p5051
I25
tp5052
a(S'round'
p5053
I25
tp5054
a(S'miles'
p5055
I25
tp5056
a(S'shareholders'
p5057
I25
tp5058
a(S'anyway'
p5059
I25
tp5060
a(S'platform'
p5061
I25
tp5062
a(S'wind'
p5063
I25
tp5064
a(S'causing'
p5065
I25
tp5066
a(S'pico'
p5067
I25
tp5068
a(S'iso'
p5069
I25
tp5070
a(S'consent'
p5071
I25
tp5072
a(S'et'
p5073
I25
tp5074
a(S'correction'
p5075
I25
tp5076
a(S'owns'
p5077
I25
tp5078
a(S'erections'
p5079
I25
tp5080
a(S'videos'
p5081
I25
tp5082
a(S'moment'
p5083
I25
tp5084
a(S'ref'
p5085
I25
tp5086
a(S'frank'
p5087
I25
tp5088
a(S'discrepancies'
p5089
I25
tp5090
a(S'ma'
p5091
I25
tp5092
a(S'tessie'
p5093
I25
tp5094
a(S'communicate'
p5095
I25
tp5096
a(S'dewpoint'
p5097
I25
tp5098
a(S'owners'
p5099
I25
tp5100
a(S'inches'
p5101
I25
tp5102
a(S'un'
p5103
I25
tp5104
a(S'experiencing'
p5105
I25
tp5106
a(S'exciting'
p5107
I25
tp5108
a(S'collection'
p5109
I25
tp5110
a(S'spain'
p5111
I25
tp5112
a(S'bane'
p5113
I25
tp5114
a(S'supported'
p5115
I25
tp5116
a(S'ya'
p5117
I25
tp5118
a(S'valuable'
p5119
I25
tp5120
a(S'confidentiality'
p5121
I25
tp5122
a(S'processes'
p5123
I25
tp5124
a(S'capture'
p5125
I25
tp5126
a(S'eat'
p5127
I25
tp5128
a(S'mine'
p5129
I25
tp5130
a(S'mai'
p5131
I25
tp5132
a(S'association'
p5133
I25
tp5134
a(S'extremely'
p5135
I25
tp5136
a(S'biggest'
p5137
I25
tp5138
a(S'cheapest'
p5139
I25
tp5140
a(S'hearing'
p5141
I25
tp5142
a(S'nathan'
p5143
I25
tp5144
a(S'goal'
p5145
I25
tp5146
a(S'busy'
p5147
I25
tp5148
a(S'improved'
p5149
I25
tp5150
a(S'familiar'
p5151
I25
tp5152
a(S'disclosure'
p5153
I25
tp5154
a(S'prohibited'
p5155
I25
tp5156
a(S'piece'
p5157
I25
tp5158
a(S'restricted'
p5159
I25
tp5160
a(S'die'
p5161
I25
tp5162
a(S'income'
p5163
I25
tp5164
a(S'shawna'
p5165
I25
tp5166
a(S'gore'
p5167
I25
tp5168
a(S'originally'
p5169
I24
tp5170
a(S'aggressive'
p5171
I24
tp5172
a(S'advertisement'
p5173
I24
tp5174
a(S'tracking'
p5175
I24
tp5176
a(S'books'
p5177
I24
tp5178
a(S'carriere'
p5179
I24
tp5180
a(S'moshou'
p5181
I24
tp5182
a(S'death'
p5183
I24
tp5184
a(S'lives'
p5185
I24
tp5186
a(S'seven'
p5187
I24
tp5188
a(S'zajac'
p5189
I24
tp5190
a(S'filled'
p5191
I24
tp5192
a(S'choate'
p5193
I24
tp5194
a(S'sound'
p5195
I24
tp5196
a(S'organizational'
p5197
I24
tp5198
a(S'smart'
p5199
I24
tp5200
a(S'hair'
p5201
I24
tp5202
a(S'rental'
p5203
I24
tp5204
a(S'picture'
p5205
I24
tp5206
a(S'story'
p5207
I24
tp5208
a(S'accurate'
p5209
I24
tp5210
a(S'consemiu'
p5211
I24
tp5212
a(S'hence'
p5213
I24
tp5214
a(S'steps'
p5215
I24
tp5216
a(S'imited'
p5217
I24
tp5218
a(S'anti'
p5219
I24
tp5220
a(S'ac'
p5221
I24
tp5222
a(S'earnings'
p5223
I24
tp5224
a(S'blvd'
p5225
I24
tp5226
a(S'ct'
p5227
I24
tp5228
a(S'tape'
p5229
I24
tp5230
a(S'space'
p5231
I24
tp5232
a(S'fl'
p5233
I24
tp5234
a(S'agenda'
p5235
I24
tp5236
a(S'isc'
p5237
I24
tp5238
a(S'seneca'
p5239
I24
tp5240
a(S'died'
p5241
I24
tp5242
a(S'offered'
p5243
I24
tp5244
a(S'participants'
p5245
I24
tp5246
a(S'spent'
p5247
I24
tp5248
a(S'peggy'
p5249
I24
tp5250
a(S'industries'
p5251
I24
tp5252
a(S'majeure'
p5253
I24
tp5254
a(S'improve'
p5255
I24
tp5256
a(S'medium'
p5257
I24
tp5258
a(S'ten'
p5259
I24
tp5260
a(S'randall'
p5261
I24
tp5262
a(S'proprietary'
p5263
I24
tp5264
a(S'european'
p5265
I24
tp5266
a(S'church'
p5267
I24
tp5268
a(S'cia'
p5269
I24
tp5270
a(S'ut'
p5271
I24
tp5272
a(S'expressed'
p5273
I24
tp5274
a(S'bussell'
p5275
I24
tp5276
a(S'implementation'
p5277
I24
tp5278
a(S'ail'
p5279
I24
tp5280
a(S'pubiisher'
p5281
I24
tp5282
a(S'messaging'
p5283
I24
tp5284
a(S'wil'
p5285
I24
tp5286
a(S'consumer'
p5287
I24
tp5288
a(S'eyes'
p5289
I24
tp5290
a(S'sutton'
p5291
I24
tp5292
a(S'arial'
p5293
I24
tp5294
a(S'gay'
p5295
I24
tp5296
a(S'gap'
p5297
I24
tp5298
a(S'prescriptions'
p5299
I24
tp5300
a(S'gives'
p5301
I24
tp5302
a(S'richardson'
p5303
I24
tp5304
a(S'ownership'
p5305
I24
tp5306
a(S'massive'
p5307
I24
tp5308
a(S'male'
p5309
I24
tp5310
a(S'reminder'
p5311
I24
tp5312
a(S'concerned'
p5313
I24
tp5314
a(S'continues'
p5315
I24
tp5316
a(S'delivering'
p5317
I24
tp5318
a(S'duplicate'
p5319
I24
tp5320
a(S'device'
p5321
I24
tp5322
a(S'wire'
p5323
I24
tp5324
a(S'glo'
p5325
I24
tp5326
a(S'trouble'
p5327
I24
tp5328
a(S'earthlink'
p5329
I24
tp5330
a(S'florida'
p5331
I24
tp5332
a(S'emerging'
p5333
I24
tp5334
a(S'began'
p5335
I24
tp5336
a(S'campaign'
p5337
I24
tp5338
a(S'requesting'
p5339
I24
tp5340
a(S'trades'
p5341
I24
tp5342
a(S'published'
p5343
I24
tp5344
a(S'eliminate'
p5345
I24
tp5346
a(S'copied'
p5347
I24
tp5348
a(S'diane'
p5349
I24
tp5350
a(S'mortgage'
p5351
I24
tp5352
a(S'ways'
p5353
I24
tp5354
a(S'agreements'
p5355
I24
tp5356
a(S'bringing'
p5357
I23
tp5358
a(S'rich'
p5359
I23
tp5360
a(S'indicative'
p5361
I23
tp5362
a(S'length'
p5363
I23
tp5364
a(S'places'
p5365
I23
tp5366
a(S'cooperation'
p5367
I23
tp5368
a(S'client'
p5369
I23
tp5370
a(S'regardless'
p5371
I23
tp5372
a(S'marshall'
p5373
I23
tp5374
a(S'default'
p5375
I23
tp5376
a(S'suggested'
p5377
I23
tp5378
a(S'stores'
p5379
I23
tp5380
a(S'hopefully'
p5381
I23
tp5382
a(S'spacer'
p5383
I23
tp5384
a(S'pleasure'
p5385
I23
tp5386
a(S'leaving'
p5387
I23
tp5388
a(S'possibly'
p5389
I23
tp5390
a(S'session'
p5391
I23
tp5392
a(S'expiration'
p5393
I23
tp5394
a(S'variety'
p5395
I23
tp5396
a(S'palestinian'
p5397
I23
tp5398
a(S'kyle'
p5399
I23
tp5400
a(S'ea'
p5401
I23
tp5402
a(S'desktop'
p5403
I23
tp5404
a(S'salary'
p5405
I23
tp5406
a(S'uses'
p5407
I23
tp5408
a(S'focused'
p5409
I23
tp5410
a(S'gepl'
p5411
I23
tp5412
a(S'alpine'
p5413
I23
tp5414
a(S'buckley'
p5415
I23
tp5416
a(S'hydrocarbon'
p5417
I23
tp5418
a(S'compare'
p5419
I23
tp5420
a(S'winners'
p5421
I23
tp5422
a(S'leaders'
p5423
I23
tp5424
a(S'auction'
p5425
I23
tp5426
a(S'mi'
p5427
I23
tp5428
a(S'connect'
p5429
I23
tp5430
a(S'presentation'
p5431
I23
tp5432
a(S'recommended'
p5433
I23
tp5434
a(S'planned'
p5435
I23
tp5436
a(S'allowed'
p5437
I23
tp5438
a(S'sp'
p5439
I23
tp5440
a(S'square'
p5441
I23
tp5442
a(S'dating'
p5443
I23
tp5444
a(S'hansen'
p5445
I23
tp5446
a(S'applicable'
p5447
I23
tp5448
a(S'reduced'
p5449
I23
tp5450
a(S'amended'
p5451
I23
tp5452
a(S'highest'
p5453
I23
tp5454
a(S'sabrae'
p5455
I23
tp5456
a(S'pvr'
p5457
I23
tp5458
a(S'stranger'
p5459
I23
tp5460
a(S'wayne'
p5461
I23
tp5462
a(S'loan'
p5463
I23
tp5464
a(S'chase'
p5465
I23
tp5466
a(S'human'
p5467
I23
tp5468
a(S'speak'
p5469
I23
tp5470
a(S'bowen'
p5471
I23
tp5472
a(S'overall'
p5473
I23
tp5474
a(S'signed'
p5475
I23
tp5476
a(S'po'
p5477
I23
tp5478
a(S'penny'
p5479
I23
tp5480
a(S'canadian'
p5481
I23
tp5482
a(S'living'
p5483
I23
tp5484
a(S'raise'
p5485
I23
tp5486
a(S'contacts'
p5487
I23
tp5488
a(S'impotence'
p5489
I23
tp5490
a(S'darrel'
p5491
I23
tp5492
a(S'royalty'
p5493
I23
tp5494
a(S'sleep'
p5495
I23
tp5496
a(S'danny'
p5497
I23
tp5498
a(S'netherlands'
p5499
I23
tp5500
a(S'players'
p5501
I23
tp5502
a(S'tie'
p5503
I23
tp5504
a(S'suzanne'
p5505
I23
tp5506
a(S'motor'
p5507
I23
tp5508
a(S'serial'
p5509
I23
tp5510
a(S'premiere'
p5511
I23
tp5512
a(S'effects'
p5513
I22
tp5514
a(S'audit'
p5515
I22
tp5516
a(S'tglo'
p5517
I22
tp5518
a(S'amounts'
p5519
I22
tp5520
a(S'ryan'
p5521
I22
tp5522
a(S'fare'
p5523
I22
tp5524
a(S'attachments'
p5525
I22
tp5526
a(S'achieve'
p5527
I22
tp5528
a(S'hess'
p5529
I22
tp5530
a(S'lunch'
p5531
I22
tp5532
a(S'merger'
p5533
I22
tp5534
a(S'filter'
p5535
I22
tp5536
a(S'sometime'
p5537
I22
tp5538
a(S'leth'
p5539
I22
tp5540
a(S'brief'
p5541
I22
tp5542
a(S'rally'
p5543
I22
tp5544
a(S'explore'
p5545
I22
tp5546
a(S'difficult'
p5547
I22
tp5548
a(S'increasing'
p5549
I22
tp5550
a(S'republic'
p5551
I22
tp5552
a(S'troy'
p5553
I22
tp5554
a(S'relating'
p5555
I22
tp5556
a(S'migration'
p5557
I22
tp5558
a(S'community'
p5559
I22
tp5560
a(S'reid'
p5561
I22
tp5562
a(S'forth'
p5563
I22
tp5564
a(S'greatly'
p5565
I22
tp5566
a(S'answers'
p5567
I22
tp5568
a(S'ecf'
p5569
I22
tp5570
a(S'therein'
p5571
I22
tp5572
a(S'growing'
p5573
I22
tp5574
a(S'till'
p5575
I22
tp5576
a(S'sooner'
p5577
I22
tp5578
a(S'der'
p5579
I22
tp5580
a(S'cents'
p5581
I22
tp5582
a(S'examples'
p5583
I22
tp5584
a(S'le'
p5585
I22
tp5586
a(S'ml'
p5587
I22
tp5588
a(S'gov'
p5589
I22
tp5590
a(S'christmas'
p5591
I22
tp5592
a(S'undervalued'
p5593
I22
tp5594
a(S'hlavaty'
p5595
I22
tp5596
a(S'joanne'
p5597
I22
tp5598
a(S'types'
p5599
I22
tp5600
a(S'series'
p5601
I22
tp5602
a(S'shipper'
p5603
I22
tp5604
a(S'returned'
p5605
I22
tp5606
a(S'ur'
p5607
I22
tp5608
a(S'delay'
p5609
I22
tp5610
a(S'experienced'
p5611
I22
tp5612
a(S'lasts'
p5613
I22
tp5614
a(S'attempt'
p5615
I22
tp5616
a(S'kin'
p5617
I22
tp5618
a(S'luis'
p5619
I22
tp5620
a(S'muscle'
p5621
I22
tp5622
a(S'procedure'
p5623
I22
tp5624
a(S'eogi'
p5625
I22
tp5626
a(S'lls'
p5627
I22
tp5628
a(S'pop'
p5629
I22
tp5630
a(S'pond'
p5631
I22
tp5632
a(S'souza'
p5633
I22
tp5634
a(S'approve'
p5635
I22
tp5636
a(S'obtain'
p5637
I22
tp5638
a(S'prime'
p5639
I22
tp5640
a(S'nelson'
p5641
I22
tp5642
a(S'begins'
p5643
I22
tp5644
a(S'interface'
p5645
I22
tp5646
a(S'servers'
p5647
I22
tp5648
a(S'cove'
p5649
I22
tp5650
a(S'esther'
p5651
I22
tp5652
a(S'las'
p5653
I22
tp5654
a(S'filing'
p5655
I22
tp5656
a(S'fletcher'
p5657
I22
tp5658
a(S'engel'
p5659
I22
tp5660
a(S'metals'
p5661
I22
tp5662
a(S'carter'
p5663
I22
tp5664
a(S'starts'
p5665
I22
tp5666
a(S'amelia'
p5667
I22
tp5668
a(S'wysak'
p5669
I22
tp5670
a(S'percentage'
p5671
I22
tp5672
a(S'comfort'
p5673
I22
tp5674
a(S'caribbean'
p5675
I22
tp5676
a(S'edge'
p5677
I22
tp5678
a(S'palmer'
p5679
I22
tp5680
a(S'covered'
p5681
I22
tp5682
a(S'errors'
p5683
I21
tp5684
a(S'saying'
p5685
I21
tp5686
a(S'objective'
p5687
I21
tp5688
a(S'boost'
p5689
I21
tp5690
a(S'enronavailso'
p5691
I21
tp5692
a(S'incremental'
p5693
I21
tp5694
a(S'defs'
p5695
I21
tp5696
a(S'watches'
p5697
I21
tp5698
a(S'sans'
p5699
I21
tp5700
a(S'willing'
p5701
I21
tp5702
a(S'audio'
p5703
I21
tp5704
a(S'gloria'
p5705
I21
tp5706
a(S'padre'
p5707
I21
tp5708
a(S'convenient'
p5709
I21
tp5710
a(S'reserve'
p5711
I21
tp5712
a(S'excite'
p5713
I21
tp5714
a(S'macintosh'
p5715
I21
tp5716
a(S'corel'
p5717
I21
tp5718
a(S'decide'
p5719
I21
tp5720
a(S'bass'
p5721
I21
tp5722
a(S'economic'
p5723
I21
tp5724
a(S'ordered'
p5725
I21
tp5726
a(S'testing'
p5727
I21
tp5728
a(S'thorough'
p5729
I21
tp5730
a(S'porn'
p5731
I21
tp5732
a(S'cards'
p5733
I21
tp5734
a(S'newsietter'
p5735
I21
tp5736
a(S'lets'
p5737
I21
tp5738
a(S'milwaukee'
p5739
I21
tp5740
a(S'flight'
p5741
I21
tp5742
a(S'superior'
p5743
I21
tp5744
a(S'disclose'
p5745
I21
tp5746
a(S'priority'
p5747
I21
tp5748
a(S'vary'
p5749
I21
tp5750
a(S'cousino'
p5751
I21
tp5752
a(S'driscoll'
p5753
I21
tp5754
a(S'armstrong'
p5755
I21
tp5756
a(S'doubt'
p5757
I21
tp5758
a(S'drill'
p5759
I21
tp5760
a(S'towards'
p5761
I21
tp5762
a(S'worldnet'
p5763
I21
tp5764
a(S'affect'
p5765
I21
tp5766
a(S'ooo'
p5767
I21
tp5768
a(S'tue'
p5769
I21
tp5770
a(S'cancel'
p5771
I21
tp5772
a(S'kathy'
p5773
I21
tp5774
a(S'beemer'
p5775
I21
tp5776
a(S'curve'
p5777
I21
tp5778
a(S'contacting'
p5779
I21
tp5780
a(S'awesome'
p5781
I21
tp5782
a(S'constitutes'
p5783
I21
tp5784
a(S'refer'
p5785
I21
tp5786
a(S'tm'
p5787
I21
tp5788
a(S'formosa'
p5789
I21
tp5790
a(S'straight'
p5791
I21
tp5792
a(S'technical'
p5793
I21
tp5794
a(S'buttons'
p5795
I21
tp5796
a(S'kerr'
p5797
I21
tp5798
a(S'heavy'
p5799
I21
tp5800
a(S'officers'
p5801
I21
tp5802
a(S'minimal'
p5803
I21
tp5804
a(S'visual'
p5805
I21
tp5806
a(S'whose'
p5807
I21
tp5808
a(S'ward'
p5809
I21
tp5810
a(S'sounds'
p5811
I21
tp5812
a(S'shot'
p5813
I21
tp5814
a(S'encoding'
p5815
I21
tp5816
a(S'computers'
p5817
I21
tp5818
a(S'distributed'
p5819
I21
tp5820
a(S'authority'
p5821
I21
tp5822
a(S'approach'
p5823
I21
tp5824
a(S'portal'
p5825
I21
tp5826
a(S'mother'
p5827
I21
tp5828
a(S'returns'
p5829
I21
tp5830
a(S'unfortunately'
p5831
I21
tp5832
a(S'satisfaction'
p5833
I21
tp5834
a(S'knows'
p5835
I21
tp5836
a(S'feet'
p5837
I21
tp5838
a(S'sir'
p5839
I21
tp5840
a(S'fire'
p5841
I21
tp5842
a(S'prefer'
p5843
I21
tp5844
a(S'formula'
p5845
I21
tp5846
a(S'quite'
p5847
I21
tp5848
a(S'phillip'
p5849
I21
tp5850
a(S'phones'
p5851
I21
tp5852
a(S'learning'
p5853
I21
tp5854
a(S'aren'
p5855
I21
tp5856
a(S'nigeria'
p5857
I21
tp5858
a(S'fda'
p5859
I21
tp5860
a(S'alland'
p5861
I21
tp5862
a(S'felipe'
p5863
I21
tp5864
a(S'flw'
p5865
I21
tp5866
a(S'forecast'
p5867
I21
tp5868
a(S'traded'
p5869
I21
tp5870
a(S'forget'
p5871
I21
tp5872
a(S'staffing'
p5873
I21
tp5874
a(S'permanent'
p5875
I21
tp5876
a(S'explosion'
p5877
I21
tp5878
a(S'unlimited'
p5879
I21
tp5880
a(S'redelivery'
p5881
I21
tp5882
a(S'wild'
p5883
I21
tp5884
a(S'patch'
p5885
I20
tp5886
a(S'jay'
p5887
I20
tp5888
a(S'ellenberger'
p5889
I20
tp5890
a(S'transferred'
p5891
I20
tp5892
a(S'camera'
p5893
I20
tp5894
a(S'tennessee'
p5895
I20
tp5896
a(S'prizes'
p5897
I20
tp5898
a(S'patience'
p5899
I20
tp5900
a(S'election'
p5901
I20
tp5902
a(S'faster'
p5903
I20
tp5904
a(S'clarification'
p5905
I20
tp5906
a(S'directors'
p5907
I20
tp5908
a(S'decisions'
p5909
I20
tp5910
a(S'theresa'
p5911
I20
tp5912
a(S'collect'
p5913
I20
tp5914
a(S'allowing'
p5915
I20
tp5916
a(S'degree'
p5917
I20
tp5918
a(S'fear'
p5919
I20
tp5920
a(S'catch'
p5921
I20
tp5922
a(S'miller'
p5923
I20
tp5924
a(S'military'
p5925
I20
tp5926
a(S'smi'
p5927
I20
tp5928
a(S'dorcheus'
p5929
I20
tp5930
a(S'valued'
p5931
I20
tp5932
a(S'winter'
p5933
I20
tp5934
a(S'antivirus'
p5935
I20
tp5936
a(S'missed'
p5937
I20
tp5938
a(S'relationship'
p5939
I20
tp5940
a(S'specifically'
p5941
I20
tp5942
a(S'firms'
p5943
I20
tp5944
a(S'angeles'
p5945
I20
tp5946
a(S'manner'
p5947
I20
tp5948
a(S'fight'
p5949
I20
tp5950
a(S'trial'
p5951
I20
tp5952
a(S'ff'
p5953
I20
tp5954
a(S'gt'
p5955
I20
tp5956
a(S'neither'
p5957
I20
tp5958
a(S'fields'
p5959
I20
tp5960
a(S'formerly'
p5961
I20
tp5962
a(S'fall'
p5963
I20
tp5964
a(S'direction'
p5965
I20
tp5966
a(S'del'
p5967
I20
tp5968
a(S'twenty'
p5969
I20
tp5970
a(S'matters'
p5971
I20
tp5972
a(S'hate'
p5973
I20
tp5974
a(S'lozano'
p5975
I20
tp5976
a(S'protect'
p5977
I20
tp5978
a(S'greatest'
p5979
I20
tp5980
a(S'nt'
p5981
I20
tp5982
a(S'millions'
p5983
I20
tp5984
a(S'announcement'
p5985
I20
tp5986
a(S'insurance'
p5987
I20
tp5988
a(S'bigger'
p5989
I20
tp5990
a(S'batch'
p5991
I20
tp5992
a(S'spur'
p5993
I20
tp5994
a(S'ended'
p5995
I20
tp5996
a(S'capabilities'
p5997
I20
tp5998
a(S'cokinos'
p5999
I20
tp6000
a.